ARM GAS  C:\Users\kratz\AppData\Local\Temp\cc1LLP2W.s 			page 1


   1              		.syntax unified
   2              		.cpu cortex-m0
   3              		.fpu softvfp
   4              		.eabi_attribute 20, 1
   5              		.eabi_attribute 21, 1
   6              		.eabi_attribute 23, 3
   7              		.eabi_attribute 24, 1
   8              		.eabi_attribute 25, 1
   9              		.eabi_attribute 26, 1
  10              		.eabi_attribute 30, 1
  11              		.eabi_attribute 34, 0
  12              		.eabi_attribute 18, 4
  13              		.thumb
  14              		.syntax unified
  15              		.file	"cyfitter_cfg.c"
  16              		.text
  17              	.Ltext0:
  18              		.cfi_sections	.debug_frame
  19              		.section	.text.cfg_write_bytes32,"ax",%progbits
  20              		.align	2
  21              		.code	16
  22              		.thumb_func
  23              		.type	cfg_write_bytes32, %function
  24              	cfg_write_bytes32:
  25              	.LFB4:
  26              		.file 1 "Generated_Source\\PSoC4\\cyfitter_cfg.c"
   1:Generated_Source\PSoC4/cyfitter_cfg.c **** 
   2:Generated_Source\PSoC4/cyfitter_cfg.c **** /*******************************************************************************
   3:Generated_Source\PSoC4/cyfitter_cfg.c **** * File Name: cyfitter_cfg.c
   4:Generated_Source\PSoC4/cyfitter_cfg.c **** * 
   5:Generated_Source\PSoC4/cyfitter_cfg.c **** * PSoC Creator  4.4
   6:Generated_Source\PSoC4/cyfitter_cfg.c **** *
   7:Generated_Source\PSoC4/cyfitter_cfg.c **** * Description:
   8:Generated_Source\PSoC4/cyfitter_cfg.c **** * This file contains device initialization code.
   9:Generated_Source\PSoC4/cyfitter_cfg.c **** * Except for the user defined sections in CyClockStartupError(), this file should not be modified.
  10:Generated_Source\PSoC4/cyfitter_cfg.c **** * This file is automatically generated by PSoC Creator.
  11:Generated_Source\PSoC4/cyfitter_cfg.c **** *
  12:Generated_Source\PSoC4/cyfitter_cfg.c **** ********************************************************************************
  13:Generated_Source\PSoC4/cyfitter_cfg.c **** * Copyright (c) 2007-2020 Cypress Semiconductor.  All rights reserved.
  14:Generated_Source\PSoC4/cyfitter_cfg.c **** * You may use this file only in accordance with the license, terms, conditions, 
  15:Generated_Source\PSoC4/cyfitter_cfg.c **** * disclaimers, and limitations in the end user license agreement accompanying 
  16:Generated_Source\PSoC4/cyfitter_cfg.c **** * the software package with which this file was provided.
  17:Generated_Source\PSoC4/cyfitter_cfg.c **** ********************************************************************************/
  18:Generated_Source\PSoC4/cyfitter_cfg.c **** 
  19:Generated_Source\PSoC4/cyfitter_cfg.c **** #include <string.h>
  20:Generated_Source\PSoC4/cyfitter_cfg.c **** #include "cytypes.h"
  21:Generated_Source\PSoC4/cyfitter_cfg.c **** #include "cydevice_trm.h"
  22:Generated_Source\PSoC4/cyfitter_cfg.c **** #include "cyfitter.h"
  23:Generated_Source\PSoC4/cyfitter_cfg.c **** #include "CyLib.h"
  24:Generated_Source\PSoC4/cyfitter_cfg.c **** #include "CyLFClk.h"
  25:Generated_Source\PSoC4/cyfitter_cfg.c **** #include "cyfitter_cfg.h"
  26:Generated_Source\PSoC4/cyfitter_cfg.c **** #include "cyapicallbacks.h"
  27:Generated_Source\PSoC4/cyfitter_cfg.c **** 
  28:Generated_Source\PSoC4/cyfitter_cfg.c **** 
  29:Generated_Source\PSoC4/cyfitter_cfg.c **** #if defined(__GNUC__) || defined(__ARMCC_VERSION)
  30:Generated_Source\PSoC4/cyfitter_cfg.c ****     #define CYPACKED 
  31:Generated_Source\PSoC4/cyfitter_cfg.c ****     #define CYPACKED_ATTR __attribute__ ((packed))
ARM GAS  C:\Users\kratz\AppData\Local\Temp\cc1LLP2W.s 			page 2


  32:Generated_Source\PSoC4/cyfitter_cfg.c ****     #define CYALIGNED __attribute__ ((aligned))
  33:Generated_Source\PSoC4/cyfitter_cfg.c ****     #define CY_CFG_UNUSED __attribute__ ((unused))
  34:Generated_Source\PSoC4/cyfitter_cfg.c ****     #ifndef CY_CFG_SECTION
  35:Generated_Source\PSoC4/cyfitter_cfg.c ****         #define CY_CFG_SECTION __attribute__ ((section(".psocinit")))
  36:Generated_Source\PSoC4/cyfitter_cfg.c ****     #endif
  37:Generated_Source\PSoC4/cyfitter_cfg.c ****     
  38:Generated_Source\PSoC4/cyfitter_cfg.c ****     #if defined(__ARMCC_VERSION)
  39:Generated_Source\PSoC4/cyfitter_cfg.c ****         #define CY_CFG_MEMORY_BARRIER() __memory_changed()
  40:Generated_Source\PSoC4/cyfitter_cfg.c ****     #else
  41:Generated_Source\PSoC4/cyfitter_cfg.c ****         #define CY_CFG_MEMORY_BARRIER() __sync_synchronize()
  42:Generated_Source\PSoC4/cyfitter_cfg.c ****     #endif
  43:Generated_Source\PSoC4/cyfitter_cfg.c ****     
  44:Generated_Source\PSoC4/cyfitter_cfg.c **** #elif defined(__ICCARM__)
  45:Generated_Source\PSoC4/cyfitter_cfg.c ****     #include <intrinsics.h>
  46:Generated_Source\PSoC4/cyfitter_cfg.c **** 
  47:Generated_Source\PSoC4/cyfitter_cfg.c ****     #define CYPACKED __packed
  48:Generated_Source\PSoC4/cyfitter_cfg.c ****     #define CYPACKED_ATTR 
  49:Generated_Source\PSoC4/cyfitter_cfg.c ****     #define CYALIGNED _Pragma("data_alignment=4")
  50:Generated_Source\PSoC4/cyfitter_cfg.c ****     #define CY_CFG_UNUSED _Pragma("diag_suppress=Pe177")
  51:Generated_Source\PSoC4/cyfitter_cfg.c ****     #define CY_CFG_SECTION _Pragma("location=\".psocinit\"")
  52:Generated_Source\PSoC4/cyfitter_cfg.c ****     
  53:Generated_Source\PSoC4/cyfitter_cfg.c ****     #define CY_CFG_MEMORY_BARRIER() __DMB()
  54:Generated_Source\PSoC4/cyfitter_cfg.c ****     
  55:Generated_Source\PSoC4/cyfitter_cfg.c **** #else
  56:Generated_Source\PSoC4/cyfitter_cfg.c ****     #error Unsupported toolchain
  57:Generated_Source\PSoC4/cyfitter_cfg.c **** #endif
  58:Generated_Source\PSoC4/cyfitter_cfg.c **** 
  59:Generated_Source\PSoC4/cyfitter_cfg.c **** #ifndef CYCODE
  60:Generated_Source\PSoC4/cyfitter_cfg.c ****     #define CYCODE
  61:Generated_Source\PSoC4/cyfitter_cfg.c **** #endif
  62:Generated_Source\PSoC4/cyfitter_cfg.c **** #ifndef CYDATA
  63:Generated_Source\PSoC4/cyfitter_cfg.c ****     #define CYDATA
  64:Generated_Source\PSoC4/cyfitter_cfg.c **** #endif
  65:Generated_Source\PSoC4/cyfitter_cfg.c **** #ifndef CYFAR
  66:Generated_Source\PSoC4/cyfitter_cfg.c ****     #define CYFAR
  67:Generated_Source\PSoC4/cyfitter_cfg.c **** #endif
  68:Generated_Source\PSoC4/cyfitter_cfg.c **** #ifndef CYXDATA
  69:Generated_Source\PSoC4/cyfitter_cfg.c ****     #define CYXDATA
  70:Generated_Source\PSoC4/cyfitter_cfg.c **** #endif
  71:Generated_Source\PSoC4/cyfitter_cfg.c **** 
  72:Generated_Source\PSoC4/cyfitter_cfg.c **** 
  73:Generated_Source\PSoC4/cyfitter_cfg.c **** CY_CFG_UNUSED
  74:Generated_Source\PSoC4/cyfitter_cfg.c **** static void CYMEMZERO(void *s, size_t n);
  75:Generated_Source\PSoC4/cyfitter_cfg.c **** CY_CFG_UNUSED
  76:Generated_Source\PSoC4/cyfitter_cfg.c **** static void CYMEMZERO(void *s, size_t n)
  77:Generated_Source\PSoC4/cyfitter_cfg.c **** {
  78:Generated_Source\PSoC4/cyfitter_cfg.c **** 	(void)memset(s, 0, n);
  79:Generated_Source\PSoC4/cyfitter_cfg.c **** }
  80:Generated_Source\PSoC4/cyfitter_cfg.c **** CY_CFG_UNUSED
  81:Generated_Source\PSoC4/cyfitter_cfg.c **** static void CYCONFIGCPY(void *dest, const void *src, size_t n);
  82:Generated_Source\PSoC4/cyfitter_cfg.c **** CY_CFG_UNUSED
  83:Generated_Source\PSoC4/cyfitter_cfg.c **** static void CYCONFIGCPY(void *dest, const void *src, size_t n)
  84:Generated_Source\PSoC4/cyfitter_cfg.c **** {
  85:Generated_Source\PSoC4/cyfitter_cfg.c **** 	(void)memcpy(dest, src, n);
  86:Generated_Source\PSoC4/cyfitter_cfg.c **** }
  87:Generated_Source\PSoC4/cyfitter_cfg.c **** CY_CFG_UNUSED
  88:Generated_Source\PSoC4/cyfitter_cfg.c **** static void CYCONFIGCPYCODE(void *dest, const void *src, size_t n);
ARM GAS  C:\Users\kratz\AppData\Local\Temp\cc1LLP2W.s 			page 3


  89:Generated_Source\PSoC4/cyfitter_cfg.c **** CY_CFG_UNUSED
  90:Generated_Source\PSoC4/cyfitter_cfg.c **** static void CYCONFIGCPYCODE(void *dest, const void *src, size_t n)
  91:Generated_Source\PSoC4/cyfitter_cfg.c **** {
  92:Generated_Source\PSoC4/cyfitter_cfg.c **** 	(void)memcpy(dest, src, n);
  93:Generated_Source\PSoC4/cyfitter_cfg.c **** }
  94:Generated_Source\PSoC4/cyfitter_cfg.c **** 
  95:Generated_Source\PSoC4/cyfitter_cfg.c **** 
  96:Generated_Source\PSoC4/cyfitter_cfg.c **** 
  97:Generated_Source\PSoC4/cyfitter_cfg.c **** 
  98:Generated_Source\PSoC4/cyfitter_cfg.c **** /* Clock startup error codes                                                   */
  99:Generated_Source\PSoC4/cyfitter_cfg.c **** #define CYCLOCKSTART_NO_ERROR    0u
 100:Generated_Source\PSoC4/cyfitter_cfg.c **** #define CYCLOCKSTART_XTAL_ERROR  1u
 101:Generated_Source\PSoC4/cyfitter_cfg.c **** #define CYCLOCKSTART_32KHZ_ERROR 2u
 102:Generated_Source\PSoC4/cyfitter_cfg.c **** #define CYCLOCKSTART_PLL_ERROR   3u
 103:Generated_Source\PSoC4/cyfitter_cfg.c **** #define CYCLOCKSTART_FLL_ERROR   4u
 104:Generated_Source\PSoC4/cyfitter_cfg.c **** #define CYCLOCKSTART_WCO_ERROR   5u
 105:Generated_Source\PSoC4/cyfitter_cfg.c **** 
 106:Generated_Source\PSoC4/cyfitter_cfg.c **** 
 107:Generated_Source\PSoC4/cyfitter_cfg.c **** #ifdef CY_NEED_CYCLOCKSTARTUPERROR
 108:Generated_Source\PSoC4/cyfitter_cfg.c **** /*******************************************************************************
 109:Generated_Source\PSoC4/cyfitter_cfg.c **** * Function Name: CyClockStartupError
 110:Generated_Source\PSoC4/cyfitter_cfg.c **** ********************************************************************************
 111:Generated_Source\PSoC4/cyfitter_cfg.c **** * Summary:
 112:Generated_Source\PSoC4/cyfitter_cfg.c **** *  If an error is encountered during clock configuration (crystal startup error,
 113:Generated_Source\PSoC4/cyfitter_cfg.c **** *  PLL lock error, etc.), the system will end up here.  Unless reimplemented by
 114:Generated_Source\PSoC4/cyfitter_cfg.c **** *  the customer, this function will stop in an infinite loop.
 115:Generated_Source\PSoC4/cyfitter_cfg.c **** *
 116:Generated_Source\PSoC4/cyfitter_cfg.c **** * Parameters:
 117:Generated_Source\PSoC4/cyfitter_cfg.c **** *   void
 118:Generated_Source\PSoC4/cyfitter_cfg.c **** *
 119:Generated_Source\PSoC4/cyfitter_cfg.c **** * Return:
 120:Generated_Source\PSoC4/cyfitter_cfg.c **** *   void
 121:Generated_Source\PSoC4/cyfitter_cfg.c **** *
 122:Generated_Source\PSoC4/cyfitter_cfg.c **** *******************************************************************************/
 123:Generated_Source\PSoC4/cyfitter_cfg.c **** CY_CFG_UNUSED
 124:Generated_Source\PSoC4/cyfitter_cfg.c **** static void CyClockStartupError(uint8 errorCode);
 125:Generated_Source\PSoC4/cyfitter_cfg.c **** CY_CFG_UNUSED
 126:Generated_Source\PSoC4/cyfitter_cfg.c **** static void CyClockStartupError(uint8 errorCode)
 127:Generated_Source\PSoC4/cyfitter_cfg.c **** {
 128:Generated_Source\PSoC4/cyfitter_cfg.c ****     /* To remove the compiler warning if errorCode not used.                */
 129:Generated_Source\PSoC4/cyfitter_cfg.c ****     errorCode = errorCode;
 130:Generated_Source\PSoC4/cyfitter_cfg.c **** 
 131:Generated_Source\PSoC4/cyfitter_cfg.c ****     /* If we have a clock startup error (bad MHz crystal, PLL lock, etc.),  */
 132:Generated_Source\PSoC4/cyfitter_cfg.c ****     /* we will end up here to allow the customer to implement something to  */
 133:Generated_Source\PSoC4/cyfitter_cfg.c ****     /* deal with the clock condition.                                       */
 134:Generated_Source\PSoC4/cyfitter_cfg.c **** 
 135:Generated_Source\PSoC4/cyfitter_cfg.c **** #ifdef CY_CFG_CLOCK_STARTUP_ERROR_CALLBACK
 136:Generated_Source\PSoC4/cyfitter_cfg.c ****     CY_CFG_Clock_Startup_ErrorCallback();
 137:Generated_Source\PSoC4/cyfitter_cfg.c **** #else
 138:Generated_Source\PSoC4/cyfitter_cfg.c ****     /*  If not using CY_CFG_CLOCK_STARTUP_ERROR_CALLBACK, place your clock startup code here. */
 139:Generated_Source\PSoC4/cyfitter_cfg.c ****     /* `#START CyClockStartupError` */
 140:Generated_Source\PSoC4/cyfitter_cfg.c **** 
 141:Generated_Source\PSoC4/cyfitter_cfg.c **** 
 142:Generated_Source\PSoC4/cyfitter_cfg.c **** 
 143:Generated_Source\PSoC4/cyfitter_cfg.c ****     /* `#END` */
 144:Generated_Source\PSoC4/cyfitter_cfg.c **** 
 145:Generated_Source\PSoC4/cyfitter_cfg.c ****     while(1) {}
ARM GAS  C:\Users\kratz\AppData\Local\Temp\cc1LLP2W.s 			page 4


 146:Generated_Source\PSoC4/cyfitter_cfg.c **** #endif /* CY_CFG_CLOCK_STARTUP_ERROR_CALLBACK */
 147:Generated_Source\PSoC4/cyfitter_cfg.c **** }
 148:Generated_Source\PSoC4/cyfitter_cfg.c **** #endif
 149:Generated_Source\PSoC4/cyfitter_cfg.c **** 
 150:Generated_Source\PSoC4/cyfitter_cfg.c **** #define CY_CFG_BASE_ADDR_COUNT 17u
 151:Generated_Source\PSoC4/cyfitter_cfg.c **** CYPACKED typedef struct
 152:Generated_Source\PSoC4/cyfitter_cfg.c **** {
 153:Generated_Source\PSoC4/cyfitter_cfg.c **** 	uint8 offset;
 154:Generated_Source\PSoC4/cyfitter_cfg.c **** 	uint8 value;
 155:Generated_Source\PSoC4/cyfitter_cfg.c **** } CYPACKED_ATTR cy_cfg_addrvalue_t;
 156:Generated_Source\PSoC4/cyfitter_cfg.c **** 
 157:Generated_Source\PSoC4/cyfitter_cfg.c **** 
 158:Generated_Source\PSoC4/cyfitter_cfg.c **** 
 159:Generated_Source\PSoC4/cyfitter_cfg.c **** /*******************************************************************************
 160:Generated_Source\PSoC4/cyfitter_cfg.c **** * Function Name: cfg_write_bytes32
 161:Generated_Source\PSoC4/cyfitter_cfg.c **** ********************************************************************************
 162:Generated_Source\PSoC4/cyfitter_cfg.c **** * Summary:
 163:Generated_Source\PSoC4/cyfitter_cfg.c **** *  This function is used for setting up the chip configuration areas that
 164:Generated_Source\PSoC4/cyfitter_cfg.c **** *  contain relatively sparse data.
 165:Generated_Source\PSoC4/cyfitter_cfg.c **** *
 166:Generated_Source\PSoC4/cyfitter_cfg.c **** * Parameters:
 167:Generated_Source\PSoC4/cyfitter_cfg.c **** *   void
 168:Generated_Source\PSoC4/cyfitter_cfg.c **** *
 169:Generated_Source\PSoC4/cyfitter_cfg.c **** * Return:
 170:Generated_Source\PSoC4/cyfitter_cfg.c **** *   void
 171:Generated_Source\PSoC4/cyfitter_cfg.c **** *
 172:Generated_Source\PSoC4/cyfitter_cfg.c **** *******************************************************************************/
 173:Generated_Source\PSoC4/cyfitter_cfg.c **** static void cfg_write_bytes32(const uint32 addr_table[], const cy_cfg_addrvalue_t data_table[]);
 174:Generated_Source\PSoC4/cyfitter_cfg.c **** static void cfg_write_bytes32(const uint32 addr_table[], const cy_cfg_addrvalue_t data_table[])
 175:Generated_Source\PSoC4/cyfitter_cfg.c **** {
  27              		.loc 1 175 0
  28              		.cfi_startproc
  29              		@ args = 0, pretend = 0, frame = 0
  30              		@ frame_needed = 0, uses_anonymous_args = 0
  31              	.LVL0:
  32 0000 F0B5     		push	{r4, r5, r6, r7, lr}
  33              		.cfi_def_cfa_offset 20
  34              		.cfi_offset 4, -20
  35              		.cfi_offset 5, -16
  36              		.cfi_offset 6, -12
  37              		.cfi_offset 7, -8
  38              		.cfi_offset 14, -4
  39              	.LVL1:
 176:Generated_Source\PSoC4/cyfitter_cfg.c **** 	/* For 32-bit little-endian architectures */
 177:Generated_Source\PSoC4/cyfitter_cfg.c **** 	uint32 i, j = 0u;
  40              		.loc 1 177 0
  41 0002 0025     		movs	r5, #0
 178:Generated_Source\PSoC4/cyfitter_cfg.c **** 	for (i = 0u; i < CY_CFG_BASE_ADDR_COUNT; i++)
  42              		.loc 1 178 0
  43 0004 0027     		movs	r7, #0
  44 0006 11E0     		b	.L2
  45              	.LVL2:
  46              	.L5:
  47              	.LBB2:
 179:Generated_Source\PSoC4/cyfitter_cfg.c **** 	{
 180:Generated_Source\PSoC4/cyfitter_cfg.c **** 		uint32 baseAddr = addr_table[i];
  48              		.loc 1 180 0
ARM GAS  C:\Users\kratz\AppData\Local\Temp\cc1LLP2W.s 			page 5


  49 0008 BB00     		lsls	r3, r7, #2
  50 000a C658     		ldr	r6, [r0, r3]
  51              	.LVL3:
 181:Generated_Source\PSoC4/cyfitter_cfg.c **** 		uint8 count = (uint8)baseAddr;
  52              		.loc 1 181 0
  53 000c F3B2     		uxtb	r3, r6
  54              	.LVL4:
 182:Generated_Source\PSoC4/cyfitter_cfg.c **** 		baseAddr &= 0xFFFFFF00u;
  55              		.loc 1 182 0
  56 000e FF22     		movs	r2, #255
  57 0010 9643     		bics	r6, r2
  58              	.LVL5:
 183:Generated_Source\PSoC4/cyfitter_cfg.c **** 		while (count != 0u)
  59              		.loc 1 183 0
  60 0012 08E0     		b	.L3
  61              	.L4:
 184:Generated_Source\PSoC4/cyfitter_cfg.c **** 		{
 185:Generated_Source\PSoC4/cyfitter_cfg.c **** 			CY_SET_REG8((void *)(baseAddr + data_table[j].offset), data_table[j].value);
  62              		.loc 1 185 0
  63 0014 6A00     		lsls	r2, r5, #1
  64 0016 8A18     		adds	r2, r1, r2
  65 0018 1478     		ldrb	r4, [r2]
  66 001a A419     		adds	r4, r4, r6
  67 001c 5278     		ldrb	r2, [r2, #1]
  68 001e 2270     		strb	r2, [r4]
 186:Generated_Source\PSoC4/cyfitter_cfg.c **** 			j++;
  69              		.loc 1 186 0
  70 0020 0135     		adds	r5, r5, #1
  71              	.LVL6:
 187:Generated_Source\PSoC4/cyfitter_cfg.c **** 			count--;
  72              		.loc 1 187 0
  73 0022 013B     		subs	r3, r3, #1
  74              	.LVL7:
  75 0024 DBB2     		uxtb	r3, r3
  76              	.LVL8:
  77              	.L3:
 183:Generated_Source\PSoC4/cyfitter_cfg.c **** 		{
  78              		.loc 1 183 0
  79 0026 002B     		cmp	r3, #0
  80 0028 F4D1     		bne	.L4
  81              	.LBE2:
 178:Generated_Source\PSoC4/cyfitter_cfg.c **** 	{
  82              		.loc 1 178 0 discriminator 2
  83 002a 0137     		adds	r7, r7, #1
  84              	.LVL9:
  85              	.L2:
 178:Generated_Source\PSoC4/cyfitter_cfg.c **** 	{
  86              		.loc 1 178 0 is_stmt 0 discriminator 1
  87 002c 102F     		cmp	r7, #16
  88 002e EBD9     		bls	.L5
 188:Generated_Source\PSoC4/cyfitter_cfg.c **** 		}
 189:Generated_Source\PSoC4/cyfitter_cfg.c **** 	}
 190:Generated_Source\PSoC4/cyfitter_cfg.c **** }
  89              		.loc 1 190 0 is_stmt 1
  90              		@ sp needed
  91              	.LVL10:
  92              	.LVL11:
ARM GAS  C:\Users\kratz\AppData\Local\Temp\cc1LLP2W.s 			page 6


  93 0030 F0BD     		pop	{r4, r5, r6, r7, pc}
  94              		.cfi_endproc
  95              	.LFE4:
  96              		.size	cfg_write_bytes32, .-cfg_write_bytes32
  97 0032 C046     		.section	.text.CYMEMZERO,"ax",%progbits
  98              		.align	2
  99              		.code	16
 100              		.thumb_func
 101              		.type	CYMEMZERO, %function
 102              	CYMEMZERO:
 103              	.LFB1:
  77:Generated_Source\PSoC4/cyfitter_cfg.c **** 	(void)memset(s, 0, n);
 104              		.loc 1 77 0
 105              		.cfi_startproc
 106              		@ args = 0, pretend = 0, frame = 0
 107              		@ frame_needed = 0, uses_anonymous_args = 0
 108              	.LVL12:
 109 0000 10B5     		push	{r4, lr}
 110              		.cfi_def_cfa_offset 8
 111              		.cfi_offset 4, -8
 112              		.cfi_offset 14, -4
 113 0002 0A00     		movs	r2, r1
  78:Generated_Source\PSoC4/cyfitter_cfg.c **** }
 114              		.loc 1 78 0
 115 0004 0021     		movs	r1, #0
 116              	.LVL13:
 117 0006 FFF7FEFF 		bl	memset
 118              	.LVL14:
  79:Generated_Source\PSoC4/cyfitter_cfg.c **** CY_CFG_UNUSED
 119              		.loc 1 79 0
 120              		@ sp needed
 121 000a 10BD     		pop	{r4, pc}
 122              		.cfi_endproc
 123              	.LFE1:
 124              		.size	CYMEMZERO, .-CYMEMZERO
 125              		.section	.psocinit,"ax",%progbits
 126              		.align	2
 127              		.code	16
 128              		.thumb_func
 129              		.type	ClockSetup, %function
 130              	ClockSetup:
 131              	.LFB5:
 191:Generated_Source\PSoC4/cyfitter_cfg.c **** 
 192:Generated_Source\PSoC4/cyfitter_cfg.c **** 
 193:Generated_Source\PSoC4/cyfitter_cfg.c **** /*******************************************************************************
 194:Generated_Source\PSoC4/cyfitter_cfg.c **** * Function Name: ClockSetup
 195:Generated_Source\PSoC4/cyfitter_cfg.c **** ********************************************************************************
 196:Generated_Source\PSoC4/cyfitter_cfg.c **** *
 197:Generated_Source\PSoC4/cyfitter_cfg.c **** * Summary:
 198:Generated_Source\PSoC4/cyfitter_cfg.c **** *   Performs the initialization of all of the clocks in the device based on the
 199:Generated_Source\PSoC4/cyfitter_cfg.c **** *   settings in the Clock tab of the DWR.  This includes enabling the requested
 200:Generated_Source\PSoC4/cyfitter_cfg.c **** *   clocks and setting the necessary dividers to produce the desired frequency. 
 201:Generated_Source\PSoC4/cyfitter_cfg.c **** *
 202:Generated_Source\PSoC4/cyfitter_cfg.c **** * Parameters:
 203:Generated_Source\PSoC4/cyfitter_cfg.c **** *   void
 204:Generated_Source\PSoC4/cyfitter_cfg.c **** *
 205:Generated_Source\PSoC4/cyfitter_cfg.c **** * Return:
ARM GAS  C:\Users\kratz\AppData\Local\Temp\cc1LLP2W.s 			page 7


 206:Generated_Source\PSoC4/cyfitter_cfg.c **** *   void
 207:Generated_Source\PSoC4/cyfitter_cfg.c **** *
 208:Generated_Source\PSoC4/cyfitter_cfg.c **** *******************************************************************************/
 209:Generated_Source\PSoC4/cyfitter_cfg.c **** static void ClockSetup(void);
 210:Generated_Source\PSoC4/cyfitter_cfg.c **** CY_CFG_SECTION
 211:Generated_Source\PSoC4/cyfitter_cfg.c **** static void ClockSetup(void)
 212:Generated_Source\PSoC4/cyfitter_cfg.c **** {
 132              		.loc 1 212 0
 133              		.cfi_startproc
 134              		@ args = 0, pretend = 0, frame = 0
 135              		@ frame_needed = 0, uses_anonymous_args = 0
 136 0000 10B5     		push	{r4, lr}
 137              		.cfi_def_cfa_offset 8
 138              		.cfi_offset 4, -8
 139              		.cfi_offset 14, -4
 213:Generated_Source\PSoC4/cyfitter_cfg.c **** 
 214:Generated_Source\PSoC4/cyfitter_cfg.c **** 	/* Set Flash Cycles based on max possible frequency in case a glitch occurs during ClockSetup(). *
 215:Generated_Source\PSoC4/cyfitter_cfg.c **** 	CY_SET_REG32((void CYXDATA *)(CYREG_CPUSS_FLASH_CTL), (0x0012u));
 140              		.loc 1 215 0
 141 0002 1222     		movs	r2, #18
 142 0004 294B     		ldr	r3, .L8
 143 0006 1A60     		str	r2, [r3]
 216:Generated_Source\PSoC4/cyfitter_cfg.c **** 
 217:Generated_Source\PSoC4/cyfitter_cfg.c **** 	/* Start the WCO */
 218:Generated_Source\PSoC4/cyfitter_cfg.c **** 	CySysClkWcoStart();
 144              		.loc 1 218 0
 145 0008 FFF7FEFF 		bl	CySysClkWcoStart
 146              	.LVL15:
 219:Generated_Source\PSoC4/cyfitter_cfg.c **** 	CyDelayCycles(12000000u); /* WCO may take up to 500ms to start */
 147              		.loc 1 219 0
 148 000c 2848     		ldr	r0, .L8+4
 149 000e FFF7FEFF 		bl	CyDelayCycles
 150              	.LVL16:
 220:Generated_Source\PSoC4/cyfitter_cfg.c **** 
 221:Generated_Source\PSoC4/cyfitter_cfg.c **** 	/* Setup and trim IMO based on desired frequency. */
 222:Generated_Source\PSoC4/cyfitter_cfg.c **** 	CySysClkWriteImoFreq(48u);
 151              		.loc 1 222 0
 152 0012 3020     		movs	r0, #48
 153 0014 FFF7FEFF 		bl	CySysClkWriteImoFreq
 154              	.LVL17:
 223:Generated_Source\PSoC4/cyfitter_cfg.c **** 	CySysClkImoEnableWcoLock();
 155              		.loc 1 223 0
 156 0018 FFF7FEFF 		bl	CySysClkImoEnableWcoLock
 157              	.LVL18:
 224:Generated_Source\PSoC4/cyfitter_cfg.c **** 	/* CYDEV_CLK_ILO_CONFIG Starting address: CYDEV_CLK_ILO_CONFIG */
 225:Generated_Source\PSoC4/cyfitter_cfg.c **** 	CY_SET_REG32((void *)(CYREG_CLK_ILO_CONFIG), 0x80000006u);
 158              		.loc 1 225 0
 159 001c 254A     		ldr	r2, .L8+8
 160 001e 264B     		ldr	r3, .L8+12
 161 0020 1A60     		str	r2, [r3]
 226:Generated_Source\PSoC4/cyfitter_cfg.c **** 
 227:Generated_Source\PSoC4/cyfitter_cfg.c **** 
 228:Generated_Source\PSoC4/cyfitter_cfg.c **** 	/* Setup phase aligned clocks */
 229:Generated_Source\PSoC4/cyfitter_cfg.c **** 	CY_SET_REG32((void *)CYREG_PERI_DIV_16_CTL0, 0x00000000u);
 162              		.loc 1 229 0
 163 0022 0024     		movs	r4, #0
 164 0024 254B     		ldr	r3, .L8+16
ARM GAS  C:\Users\kratz\AppData\Local\Temp\cc1LLP2W.s 			page 8


 165 0026 1C60     		str	r4, [r3]
 230:Generated_Source\PSoC4/cyfitter_cfg.c **** 	CY_SET_REG32((void *)CYREG_PERI_DIV_CMD, 0x8000FF40u);
 166              		.loc 1 230 0
 167 0028 254B     		ldr	r3, .L8+20
 168 002a 264A     		ldr	r2, .L8+24
 169 002c 1A60     		str	r2, [r3]
 231:Generated_Source\PSoC4/cyfitter_cfg.c **** 	CY_SET_REG32((void *)CYREG_PERI_DIV_24_5_CTL, 0x0752FF00u);
 170              		.loc 1 231 0
 171 002e 2649     		ldr	r1, .L8+28
 172 0030 264A     		ldr	r2, .L8+32
 173 0032 1160     		str	r1, [r2]
 232:Generated_Source\PSoC4/cyfitter_cfg.c **** 	CY_SET_REG32((void *)CYREG_PERI_DIV_CMD, 0x8000FFC0u);
 174              		.loc 1 232 0
 175 0034 264A     		ldr	r2, .L8+36
 176 0036 1A60     		str	r2, [r3]
 233:Generated_Source\PSoC4/cyfitter_cfg.c **** 	CY_SET_REG32((void *)CYREG_PERI_DIV_16_CTL1, 0x00000100u);
 177              		.loc 1 233 0
 178 0038 8021     		movs	r1, #128
 179 003a 4900     		lsls	r1, r1, #1
 180 003c 254A     		ldr	r2, .L8+40
 181 003e 1160     		str	r1, [r2]
 234:Generated_Source\PSoC4/cyfitter_cfg.c **** 	CY_SET_REG32((void *)CYREG_PERI_DIV_CMD, 0x8000FF41u);
 182              		.loc 1 234 0
 183 0040 254A     		ldr	r2, .L8+44
 184 0042 1A60     		str	r2, [r3]
 235:Generated_Source\PSoC4/cyfitter_cfg.c **** 	CY_SET_REG32((void *)CYREG_PERI_DIV_16_CTL2, 0x00000300u);
 185              		.loc 1 235 0
 186 0044 C021     		movs	r1, #192
 187 0046 8900     		lsls	r1, r1, #2
 188 0048 244A     		ldr	r2, .L8+48
 189 004a 1160     		str	r1, [r2]
 236:Generated_Source\PSoC4/cyfitter_cfg.c **** 	CY_SET_REG32((void *)CYREG_PERI_DIV_CMD, 0x8000FF42u);
 190              		.loc 1 236 0
 191 004c 244A     		ldr	r2, .L8+52
 192 004e 1A60     		str	r2, [r3]
 237:Generated_Source\PSoC4/cyfitter_cfg.c **** 	CY_SET_REG32((void *)CYREG_PERI_DIV_16_CTL3, 0x00001100u);
 193              		.loc 1 237 0
 194 0050 8821     		movs	r1, #136
 195 0052 4901     		lsls	r1, r1, #5
 196 0054 234A     		ldr	r2, .L8+56
 197 0056 1160     		str	r1, [r2]
 238:Generated_Source\PSoC4/cyfitter_cfg.c **** 	CY_SET_REG32((void *)CYREG_PERI_DIV_CMD, 0x8000FF43u);
 198              		.loc 1 238 0
 199 0058 234A     		ldr	r2, .L8+60
 200 005a 1A60     		str	r2, [r3]
 239:Generated_Source\PSoC4/cyfitter_cfg.c **** 	CY_SET_REG32((void *)CYREG_PERI_DIV_16_CTL4, 0x0001A000u);
 201              		.loc 1 239 0
 202 005c D021     		movs	r1, #208
 203 005e 4902     		lsls	r1, r1, #9
 204 0060 224A     		ldr	r2, .L8+64
 205 0062 1160     		str	r1, [r2]
 240:Generated_Source\PSoC4/cyfitter_cfg.c **** 	CY_SET_REG32((void *)CYREG_PERI_DIV_CMD, 0x8000FF44u);
 206              		.loc 1 240 0
 207 0064 224A     		ldr	r2, .L8+68
 208 0066 1A60     		str	r2, [r3]
 241:Generated_Source\PSoC4/cyfitter_cfg.c **** 
 242:Generated_Source\PSoC4/cyfitter_cfg.c **** 	/* CYDEV_CLK_IMO_CONFIG Starting address: CYDEV_CLK_IMO_CONFIG */
ARM GAS  C:\Users\kratz\AppData\Local\Temp\cc1LLP2W.s 			page 9


 243:Generated_Source\PSoC4/cyfitter_cfg.c **** 	CY_SET_REG32((void *)(CYREG_CLK_IMO_CONFIG), 0x82000000u);
 209              		.loc 1 243 0
 210 0068 8222     		movs	r2, #130
 211 006a 1206     		lsls	r2, r2, #24
 212 006c 214B     		ldr	r3, .L8+72
 213 006e 1A60     		str	r2, [r3]
 244:Generated_Source\PSoC4/cyfitter_cfg.c **** 
 245:Generated_Source\PSoC4/cyfitter_cfg.c **** 	/* CYDEV_CLK_SELECT Starting address: CYDEV_CLK_SELECT */
 246:Generated_Source\PSoC4/cyfitter_cfg.c **** 	CY_SET_REG32((void *)(CYREG_CLK_SELECT), 0x00040000u);
 214              		.loc 1 246 0
 215 0070 8022     		movs	r2, #128
 216 0072 D202     		lsls	r2, r2, #11
 217 0074 204B     		ldr	r3, .L8+76
 218 0076 1A60     		str	r2, [r3]
 247:Generated_Source\PSoC4/cyfitter_cfg.c **** 
 248:Generated_Source\PSoC4/cyfitter_cfg.c **** 	/* CYDEV_PERI_PCLK_CTL22 Starting address: CYDEV_PERI_PCLK_CTL22 */
 249:Generated_Source\PSoC4/cyfitter_cfg.c **** 	CY_SET_REG32((void *)(CYREG_PERI_PCLK_CTL22), 0x000000C0u);
 219              		.loc 1 249 0
 220 0078 C022     		movs	r2, #192
 221 007a 204B     		ldr	r3, .L8+80
 222 007c 1A60     		str	r2, [r3]
 250:Generated_Source\PSoC4/cyfitter_cfg.c **** 
 251:Generated_Source\PSoC4/cyfitter_cfg.c **** 	/* CYDEV_PERI_PCLK_CTL20 Starting address: CYDEV_PERI_PCLK_CTL20 */
 252:Generated_Source\PSoC4/cyfitter_cfg.c **** 	CY_SET_REG32((void *)(CYREG_PERI_PCLK_CTL20), 0x00000041u);
 223              		.loc 1 252 0
 224 007e 7F3A     		subs	r2, r2, #127
 225 0080 1F4B     		ldr	r3, .L8+84
 226 0082 1A60     		str	r2, [r3]
 253:Generated_Source\PSoC4/cyfitter_cfg.c **** 
 254:Generated_Source\PSoC4/cyfitter_cfg.c **** 	/* CYDEV_PERI_PCLK_CTL11 Starting address: CYDEV_PERI_PCLK_CTL11 */
 255:Generated_Source\PSoC4/cyfitter_cfg.c **** 	CY_SET_REG32((void *)(CYREG_PERI_PCLK_CTL11), 0x00000042u);
 227              		.loc 1 255 0
 228 0084 0132     		adds	r2, r2, #1
 229 0086 1F4B     		ldr	r3, .L8+88
 230 0088 1A60     		str	r2, [r3]
 256:Generated_Source\PSoC4/cyfitter_cfg.c **** 
 257:Generated_Source\PSoC4/cyfitter_cfg.c **** 	/* CYDEV_PERI_PCLK_CTL10 Starting address: CYDEV_PERI_PCLK_CTL10 */
 258:Generated_Source\PSoC4/cyfitter_cfg.c **** 	CY_SET_REG32((void *)(CYREG_PERI_PCLK_CTL10), 0x00000043u);
 231              		.loc 1 258 0
 232 008a 0132     		adds	r2, r2, #1
 233 008c 1E4B     		ldr	r3, .L8+92
 234 008e 1A60     		str	r2, [r3]
 259:Generated_Source\PSoC4/cyfitter_cfg.c **** 
 260:Generated_Source\PSoC4/cyfitter_cfg.c **** 	/* CYDEV_PERI_PCLK_CTL2 Starting address: CYDEV_PERI_PCLK_CTL2 */
 261:Generated_Source\PSoC4/cyfitter_cfg.c **** 	CY_SET_REG32((void *)(CYREG_PERI_PCLK_CTL2), 0x00000044u);
 235              		.loc 1 261 0
 236 0090 0132     		adds	r2, r2, #1
 237 0092 1E4B     		ldr	r3, .L8+96
 238 0094 1A60     		str	r2, [r3]
 262:Generated_Source\PSoC4/cyfitter_cfg.c **** 
 263:Generated_Source\PSoC4/cyfitter_cfg.c **** 	(void)CyIntSetVector(8u, &CySysWdtIsr);
 239              		.loc 1 263 0
 240 0096 1E49     		ldr	r1, .L8+100
 241 0098 0820     		movs	r0, #8
 242 009a FFF7FEFF 		bl	CyIntSetVector
 243              	.LVL19:
 264:Generated_Source\PSoC4/cyfitter_cfg.c **** 	CyIntEnable(8u);
ARM GAS  C:\Users\kratz\AppData\Local\Temp\cc1LLP2W.s 			page 10


 244              		.loc 1 264 0
 245 009e 0820     		movs	r0, #8
 246 00a0 FFF7FEFF 		bl	CyIntEnable
 247              	.LVL20:
 265:Generated_Source\PSoC4/cyfitter_cfg.c **** 	CY_SET_REG32((void *)(CYREG_WDT_CONFIG), 0x00000000u);
 248              		.loc 1 265 0
 249 00a4 1B4B     		ldr	r3, .L8+104
 250 00a6 1C60     		str	r4, [r3]
 266:Generated_Source\PSoC4/cyfitter_cfg.c **** }
 251              		.loc 1 266 0
 252              		@ sp needed
 253 00a8 10BD     		pop	{r4, pc}
 254              	.L9:
 255 00aa C046     		.align	2
 256              	.L8:
 257 00ac 30001040 		.word	1074790448
 258 00b0 001BB700 		.word	12000000
 259 00b4 06000080 		.word	-2147483642
 260 00b8 04010B40 		.word	1074462980
 261 00bc 00030140 		.word	1073808128
 262 00c0 00000140 		.word	1073807360
 263 00c4 40FF0080 		.word	-2147418304
 264 00c8 00FF5207 		.word	122879744
 265 00cc 00050140 		.word	1073808640
 266 00d0 C0FF0080 		.word	-2147418176
 267 00d4 04030140 		.word	1073808132
 268 00d8 41FF0080 		.word	-2147418303
 269 00dc 08030140 		.word	1073808136
 270 00e0 42FF0080 		.word	-2147418302
 271 00e4 0C030140 		.word	1073808140
 272 00e8 43FF0080 		.word	-2147418301
 273 00ec 10030140 		.word	1073808144
 274 00f0 44FF0080 		.word	-2147418300
 275 00f4 08010B40 		.word	1074462984
 276 00f8 00010B40 		.word	1074462976
 277 00fc 58010140 		.word	1073807704
 278 0100 50010140 		.word	1073807696
 279 0104 2C010140 		.word	1073807660
 280 0108 28010140 		.word	1073807656
 281 010c 08010140 		.word	1073807624
 282 0110 00000000 		.word	CySysWdtIsr
 283 0114 0C020B40 		.word	1074463244
 284              		.cfi_endproc
 285              	.LFE5:
 286              		.size	ClockSetup, .-ClockSetup
 287              		.section	.text.SetAnalogRoutingPumps,"ax",%progbits
 288              		.align	2
 289              		.global	SetAnalogRoutingPumps
 290              		.code	16
 291              		.thumb_func
 292              		.type	SetAnalogRoutingPumps, %function
 293              	SetAnalogRoutingPumps:
 294              	.LFB7:
 267:Generated_Source\PSoC4/cyfitter_cfg.c **** 
 268:Generated_Source\PSoC4/cyfitter_cfg.c **** 
 269:Generated_Source\PSoC4/cyfitter_cfg.c **** /* Analog API Functions */
 270:Generated_Source\PSoC4/cyfitter_cfg.c **** 
ARM GAS  C:\Users\kratz\AppData\Local\Temp\cc1LLP2W.s 			page 11


 271:Generated_Source\PSoC4/cyfitter_cfg.c **** 
 272:Generated_Source\PSoC4/cyfitter_cfg.c **** /*******************************************************************************
 273:Generated_Source\PSoC4/cyfitter_cfg.c **** * Function Name: AnalogSetDefault
 274:Generated_Source\PSoC4/cyfitter_cfg.c **** ********************************************************************************
 275:Generated_Source\PSoC4/cyfitter_cfg.c **** *
 276:Generated_Source\PSoC4/cyfitter_cfg.c **** * Summary:
 277:Generated_Source\PSoC4/cyfitter_cfg.c **** *  Sets up the analog portions of the chip to default values based on chip
 278:Generated_Source\PSoC4/cyfitter_cfg.c **** *  configuration options from the project.
 279:Generated_Source\PSoC4/cyfitter_cfg.c **** *
 280:Generated_Source\PSoC4/cyfitter_cfg.c **** * Parameters:
 281:Generated_Source\PSoC4/cyfitter_cfg.c **** *  void
 282:Generated_Source\PSoC4/cyfitter_cfg.c **** *
 283:Generated_Source\PSoC4/cyfitter_cfg.c **** * Return:
 284:Generated_Source\PSoC4/cyfitter_cfg.c **** *  void
 285:Generated_Source\PSoC4/cyfitter_cfg.c **** *
 286:Generated_Source\PSoC4/cyfitter_cfg.c **** *******************************************************************************/
 287:Generated_Source\PSoC4/cyfitter_cfg.c **** static void AnalogSetDefault(void);
 288:Generated_Source\PSoC4/cyfitter_cfg.c **** static void AnalogSetDefault(void)
 289:Generated_Source\PSoC4/cyfitter_cfg.c **** {
 290:Generated_Source\PSoC4/cyfitter_cfg.c **** 	CY_SET_XTND_REG32((void CYFAR *)CYREG_CTBM0_DFT_CTRL, 0x00000003u);
 291:Generated_Source\PSoC4/cyfitter_cfg.c **** 	CY_SET_XTND_REG32((void CYFAR *)CYREG_CTBM1_DFT_CTRL, 0x00000003u);
 292:Generated_Source\PSoC4/cyfitter_cfg.c **** 	CY_SET_XTND_REG32((void CYFAR *)CYREG_SAR_CTRL, 0x80000000u);
 293:Generated_Source\PSoC4/cyfitter_cfg.c **** 	CY_SET_XTND_REG32((void CYFAR *)CYREG_SAR_MUX_SWITCH0, 0x00000010u);
 294:Generated_Source\PSoC4/cyfitter_cfg.c **** 	CY_SET_XTND_REG32((void CYFAR *)CYREG_PASS_DSAB_DSAB_CTRL, 0x00000000u);
 295:Generated_Source\PSoC4/cyfitter_cfg.c **** 	SetAnalogRoutingPumps(1);
 296:Generated_Source\PSoC4/cyfitter_cfg.c **** }
 297:Generated_Source\PSoC4/cyfitter_cfg.c **** 
 298:Generated_Source\PSoC4/cyfitter_cfg.c **** 
 299:Generated_Source\PSoC4/cyfitter_cfg.c **** /*******************************************************************************
 300:Generated_Source\PSoC4/cyfitter_cfg.c **** * Function Name: SetAnalogRoutingPumps
 301:Generated_Source\PSoC4/cyfitter_cfg.c **** ********************************************************************************
 302:Generated_Source\PSoC4/cyfitter_cfg.c **** *
 303:Generated_Source\PSoC4/cyfitter_cfg.c **** * Summary:
 304:Generated_Source\PSoC4/cyfitter_cfg.c **** * Enables or disables the analog pumps feeding analog routing switches.
 305:Generated_Source\PSoC4/cyfitter_cfg.c **** * Intended to be called at startup, based on the Vdda system configuration;
 306:Generated_Source\PSoC4/cyfitter_cfg.c **** * may be called during operation when the user informs us that the Vdda voltage crossed the pump th
 307:Generated_Source\PSoC4/cyfitter_cfg.c **** *
 308:Generated_Source\PSoC4/cyfitter_cfg.c **** * Parameters:
 309:Generated_Source\PSoC4/cyfitter_cfg.c **** *  enabled - 1 to enable the pumps, 0 to disable the pumps
 310:Generated_Source\PSoC4/cyfitter_cfg.c **** *
 311:Generated_Source\PSoC4/cyfitter_cfg.c **** * Return:
 312:Generated_Source\PSoC4/cyfitter_cfg.c **** *  void
 313:Generated_Source\PSoC4/cyfitter_cfg.c **** *
 314:Generated_Source\PSoC4/cyfitter_cfg.c **** *******************************************************************************/
 315:Generated_Source\PSoC4/cyfitter_cfg.c **** void SetAnalogRoutingPumps(uint8 enabled)
 316:Generated_Source\PSoC4/cyfitter_cfg.c **** {
 295              		.loc 1 316 0
 296              		.cfi_startproc
 297              		@ args = 0, pretend = 0, frame = 0
 298              		@ frame_needed = 0, uses_anonymous_args = 0
 299              		@ link register save eliminated.
 300              	.LVL21:
 317:Generated_Source\PSoC4/cyfitter_cfg.c **** 	uint32 regValue = CY_GET_XTND_REG32((void *)(CYREG_SAR_PUMP_CTRL));
 301              		.loc 1 317 0
 302 0000 064B     		ldr	r3, .L13
 303 0002 1B68     		ldr	r3, [r3]
 304              	.LVL22:
ARM GAS  C:\Users\kratz\AppData\Local\Temp\cc1LLP2W.s 			page 12


 318:Generated_Source\PSoC4/cyfitter_cfg.c **** 	if (enabled != 0u)
 305              		.loc 1 318 0
 306 0004 0028     		cmp	r0, #0
 307 0006 03D0     		beq	.L11
 319:Generated_Source\PSoC4/cyfitter_cfg.c **** 	{
 320:Generated_Source\PSoC4/cyfitter_cfg.c **** 		regValue |= 0x80000000u;
 308              		.loc 1 320 0
 309 0008 8022     		movs	r2, #128
 310 000a 1206     		lsls	r2, r2, #24
 311 000c 1343     		orrs	r3, r2
 312              	.LVL23:
 313 000e 01E0     		b	.L12
 314              	.L11:
 321:Generated_Source\PSoC4/cyfitter_cfg.c **** 	}
 322:Generated_Source\PSoC4/cyfitter_cfg.c **** 	else
 323:Generated_Source\PSoC4/cyfitter_cfg.c **** 	{
 324:Generated_Source\PSoC4/cyfitter_cfg.c **** 		regValue &= ~0x80000000u;
 315              		.loc 1 324 0
 316 0010 5B00     		lsls	r3, r3, #1
 317              	.LVL24:
 318 0012 5B08     		lsrs	r3, r3, #1
 319              	.LVL25:
 320              	.L12:
 325:Generated_Source\PSoC4/cyfitter_cfg.c **** 	}
 326:Generated_Source\PSoC4/cyfitter_cfg.c **** 	CY_SET_XTND_REG32((void *)(CYREG_SAR_PUMP_CTRL), regValue);
 321              		.loc 1 326 0
 322 0014 014A     		ldr	r2, .L13
 323 0016 1360     		str	r3, [r2]
 327:Generated_Source\PSoC4/cyfitter_cfg.c **** }
 324              		.loc 1 327 0
 325              		@ sp needed
 326 0018 7047     		bx	lr
 327              	.L14:
 328 001a C046     		.align	2
 329              	.L13:
 330 001c 80033A40 		.word	1077543808
 331              		.cfi_endproc
 332              	.LFE7:
 333              		.size	SetAnalogRoutingPumps, .-SetAnalogRoutingPumps
 334              		.section	.text.AnalogSetDefault,"ax",%progbits
 335              		.align	2
 336              		.code	16
 337              		.thumb_func
 338              		.type	AnalogSetDefault, %function
 339              	AnalogSetDefault:
 340              	.LFB6:
 289:Generated_Source\PSoC4/cyfitter_cfg.c **** 	CY_SET_XTND_REG32((void CYFAR *)CYREG_CTBM0_DFT_CTRL, 0x00000003u);
 341              		.loc 1 289 0
 342              		.cfi_startproc
 343              		@ args = 0, pretend = 0, frame = 0
 344              		@ frame_needed = 0, uses_anonymous_args = 0
 345 0000 10B5     		push	{r4, lr}
 346              		.cfi_def_cfa_offset 8
 347              		.cfi_offset 4, -8
 348              		.cfi_offset 14, -4
 290:Generated_Source\PSoC4/cyfitter_cfg.c **** 	CY_SET_XTND_REG32((void CYFAR *)CYREG_CTBM1_DFT_CTRL, 0x00000003u);
 349              		.loc 1 290 0
ARM GAS  C:\Users\kratz\AppData\Local\Temp\cc1LLP2W.s 			page 13


 350 0002 0323     		movs	r3, #3
 351 0004 084A     		ldr	r2, .L16
 352 0006 1360     		str	r3, [r2]
 291:Generated_Source\PSoC4/cyfitter_cfg.c **** 	CY_SET_XTND_REG32((void CYFAR *)CYREG_SAR_CTRL, 0x80000000u);
 353              		.loc 1 291 0
 354 0008 084A     		ldr	r2, .L16+4
 355 000a 1360     		str	r3, [r2]
 292:Generated_Source\PSoC4/cyfitter_cfg.c **** 	CY_SET_XTND_REG32((void CYFAR *)CYREG_SAR_MUX_SWITCH0, 0x00000010u);
 356              		.loc 1 292 0
 357 000c 8022     		movs	r2, #128
 358 000e 1206     		lsls	r2, r2, #24
 359 0010 074B     		ldr	r3, .L16+8
 360 0012 1A60     		str	r2, [r3]
 293:Generated_Source\PSoC4/cyfitter_cfg.c **** 	CY_SET_XTND_REG32((void CYFAR *)CYREG_PASS_DSAB_DSAB_CTRL, 0x00000000u);
 361              		.loc 1 293 0
 362 0014 1022     		movs	r2, #16
 363 0016 074B     		ldr	r3, .L16+12
 364 0018 1A60     		str	r2, [r3]
 294:Generated_Source\PSoC4/cyfitter_cfg.c **** 	SetAnalogRoutingPumps(1);
 365              		.loc 1 294 0
 366 001a 0022     		movs	r2, #0
 367 001c 064B     		ldr	r3, .L16+16
 368 001e 1A60     		str	r2, [r3]
 295:Generated_Source\PSoC4/cyfitter_cfg.c **** }
 369              		.loc 1 295 0
 370 0020 0120     		movs	r0, #1
 371 0022 FFF7FEFF 		bl	SetAnalogRoutingPumps
 372              	.LVL26:
 296:Generated_Source\PSoC4/cyfitter_cfg.c **** 
 373              		.loc 1 296 0
 374              		@ sp needed
 375 0026 10BD     		pop	{r4, pc}
 376              	.L17:
 377              		.align	2
 378              	.L16:
 379 0028 30003040 		.word	1076887600
 380 002c 30003140 		.word	1076953136
 381 0030 00003A40 		.word	1077542912
 382 0034 00033A40 		.word	1077543680
 383 0038 000E3F40 		.word	1077874176
 384              		.cfi_endproc
 385              	.LFE6:
 386              		.size	AnalogSetDefault, .-AnalogSetDefault
 387              		.section	.psocinit
 388              		.align	2
 389              		.global	cyfitter_cfg
 390              		.code	16
 391              		.thumb_func
 392              		.type	cyfitter_cfg, %function
 393              	cyfitter_cfg:
 394              	.LFB8:
 328:Generated_Source\PSoC4/cyfitter_cfg.c **** 
 329:Generated_Source\PSoC4/cyfitter_cfg.c **** 
 330:Generated_Source\PSoC4/cyfitter_cfg.c **** 
 331:Generated_Source\PSoC4/cyfitter_cfg.c **** 
 332:Generated_Source\PSoC4/cyfitter_cfg.c **** /*******************************************************************************
 333:Generated_Source\PSoC4/cyfitter_cfg.c **** * Function Name: cyfitter_cfg
ARM GAS  C:\Users\kratz\AppData\Local\Temp\cc1LLP2W.s 			page 14


 334:Generated_Source\PSoC4/cyfitter_cfg.c **** ********************************************************************************
 335:Generated_Source\PSoC4/cyfitter_cfg.c **** * Summary:
 336:Generated_Source\PSoC4/cyfitter_cfg.c **** *  This function is called by the start-up code for the selected device. It
 337:Generated_Source\PSoC4/cyfitter_cfg.c **** *  performs all of the necessary device configuration based on the design
 338:Generated_Source\PSoC4/cyfitter_cfg.c **** *  settings.  This includes settings from the Design Wide Resources (DWR) such
 339:Generated_Source\PSoC4/cyfitter_cfg.c **** *  as Clocks and Pins as well as any component configuration that is necessary.
 340:Generated_Source\PSoC4/cyfitter_cfg.c **** *
 341:Generated_Source\PSoC4/cyfitter_cfg.c **** * Parameters:
 342:Generated_Source\PSoC4/cyfitter_cfg.c **** *   void
 343:Generated_Source\PSoC4/cyfitter_cfg.c **** *
 344:Generated_Source\PSoC4/cyfitter_cfg.c **** * Return:
 345:Generated_Source\PSoC4/cyfitter_cfg.c **** *   void
 346:Generated_Source\PSoC4/cyfitter_cfg.c **** *
 347:Generated_Source\PSoC4/cyfitter_cfg.c **** *******************************************************************************/
 348:Generated_Source\PSoC4/cyfitter_cfg.c **** CY_CFG_SECTION
 349:Generated_Source\PSoC4/cyfitter_cfg.c **** void cyfitter_cfg(void)
 350:Generated_Source\PSoC4/cyfitter_cfg.c **** {
 395              		.loc 1 350 0
 396              		.cfi_startproc
 397              		@ args = 0, pretend = 0, frame = 0
 398              		@ frame_needed = 0, uses_anonymous_args = 0
 399 0118 10B5     		push	{r4, lr}
 400              		.cfi_def_cfa_offset 8
 401              		.cfi_offset 4, -8
 402              		.cfi_offset 14, -4
 351:Generated_Source\PSoC4/cyfitter_cfg.c **** 	/* Disable interrupts by default. Let user enable if/when they want. */
 352:Generated_Source\PSoC4/cyfitter_cfg.c **** 	CyGlobalIntDisable;
 403              		.loc 1 352 0
 404              		.syntax divided
 405              	@ 352 "Generated_Source\PSoC4\cyfitter_cfg.c" 1
 406 011a 72B6     		CPSID   i
 407              	@ 0 "" 2
 353:Generated_Source\PSoC4/cyfitter_cfg.c **** 
 354:Generated_Source\PSoC4/cyfitter_cfg.c **** 	/* Enable the clock in the interrupt controller for the routed interrupts */
 355:Generated_Source\PSoC4/cyfitter_cfg.c **** 	CY_SET_REG8((void *)CYREG_UDB_UDB_INT_CLK_CTL, 0x01u);
 408              		.loc 1 355 0
 409              		.thumb
 410              		.syntax unified
 411 011c 0122     		movs	r2, #1
 412 011e 424B     		ldr	r3, .L21
 413 0120 1A70     		strb	r2, [r3]
 414              	.LVL27:
 415              	.LBB3:
 356:Generated_Source\PSoC4/cyfitter_cfg.c **** 	{
 357:Generated_Source\PSoC4/cyfitter_cfg.c **** 		static const uint32 CYCODE cy_cfg_addr_table[] = {
 358:Generated_Source\PSoC4/cyfitter_cfg.c **** 			0x400F0004u, /* Base address: 0x400F0000 Count: 4 */
 359:Generated_Source\PSoC4/cyfitter_cfg.c **** 			0x400F304Eu, /* Base address: 0x400F3000 Count: 78 */
 360:Generated_Source\PSoC4/cyfitter_cfg.c **** 			0x400F312Cu, /* Base address: 0x400F3100 Count: 44 */
 361:Generated_Source\PSoC4/cyfitter_cfg.c **** 			0x400F3247u, /* Base address: 0x400F3200 Count: 71 */
 362:Generated_Source\PSoC4/cyfitter_cfg.c **** 			0x400F333Du, /* Base address: 0x400F3300 Count: 61 */
 363:Generated_Source\PSoC4/cyfitter_cfg.c **** 			0x400F3459u, /* Base address: 0x400F3400 Count: 89 */
 364:Generated_Source\PSoC4/cyfitter_cfg.c **** 			0x400F3543u, /* Base address: 0x400F3500 Count: 67 */
 365:Generated_Source\PSoC4/cyfitter_cfg.c **** 			0x400F363Au, /* Base address: 0x400F3600 Count: 58 */
 366:Generated_Source\PSoC4/cyfitter_cfg.c **** 			0x400F3739u, /* Base address: 0x400F3700 Count: 57 */
 367:Generated_Source\PSoC4/cyfitter_cfg.c **** 			0x400F400Bu, /* Base address: 0x400F4000 Count: 11 */
 368:Generated_Source\PSoC4/cyfitter_cfg.c **** 			0x400F4108u, /* Base address: 0x400F4100 Count: 8 */
 369:Generated_Source\PSoC4/cyfitter_cfg.c **** 			0x400F4208u, /* Base address: 0x400F4200 Count: 8 */
ARM GAS  C:\Users\kratz\AppData\Local\Temp\cc1LLP2W.s 			page 15


 370:Generated_Source\PSoC4/cyfitter_cfg.c **** 			0x400F430Bu, /* Base address: 0x400F4300 Count: 11 */
 371:Generated_Source\PSoC4/cyfitter_cfg.c **** 			0x400F4502u, /* Base address: 0x400F4500 Count: 2 */
 372:Generated_Source\PSoC4/cyfitter_cfg.c **** 			0x400F4604u, /* Base address: 0x400F4600 Count: 4 */
 373:Generated_Source\PSoC4/cyfitter_cfg.c **** 			0x400F4705u, /* Base address: 0x400F4700 Count: 5 */
 374:Generated_Source\PSoC4/cyfitter_cfg.c **** 			0x400F6003u, /* Base address: 0x400F6000 Count: 3 */
 375:Generated_Source\PSoC4/cyfitter_cfg.c **** 		};
 376:Generated_Source\PSoC4/cyfitter_cfg.c **** 
 377:Generated_Source\PSoC4/cyfitter_cfg.c **** 		static const cy_cfg_addrvalue_t CYCODE cy_cfg_data_table[] = {
 378:Generated_Source\PSoC4/cyfitter_cfg.c **** 			{0x81u, 0x6Fu},
 379:Generated_Source\PSoC4/cyfitter_cfg.c **** 			{0x82u, 0x0Du},
 380:Generated_Source\PSoC4/cyfitter_cfg.c **** 			{0x83u, 0x0Fu},
 381:Generated_Source\PSoC4/cyfitter_cfg.c **** 			{0x86u, 0x07u},
 382:Generated_Source\PSoC4/cyfitter_cfg.c **** 			{0x04u, 0x0Cu},
 383:Generated_Source\PSoC4/cyfitter_cfg.c **** 			{0x06u, 0x02u},
 384:Generated_Source\PSoC4/cyfitter_cfg.c **** 			{0x16u, 0x0Fu},
 385:Generated_Source\PSoC4/cyfitter_cfg.c **** 			{0x18u, 0x08u},
 386:Generated_Source\PSoC4/cyfitter_cfg.c **** 			{0x1Au, 0x01u},
 387:Generated_Source\PSoC4/cyfitter_cfg.c **** 			{0x1Cu, 0x0Cu},
 388:Generated_Source\PSoC4/cyfitter_cfg.c **** 			{0x1Eu, 0x01u},
 389:Generated_Source\PSoC4/cyfitter_cfg.c **** 			{0x20u, 0x0Bu},
 390:Generated_Source\PSoC4/cyfitter_cfg.c **** 			{0x22u, 0x04u},
 391:Generated_Source\PSoC4/cyfitter_cfg.c **** 			{0x28u, 0x07u},
 392:Generated_Source\PSoC4/cyfitter_cfg.c **** 			{0x34u, 0x0Fu},
 393:Generated_Source\PSoC4/cyfitter_cfg.c **** 			{0x40u, 0x54u},
 394:Generated_Source\PSoC4/cyfitter_cfg.c **** 			{0x49u, 0xFFu},
 395:Generated_Source\PSoC4/cyfitter_cfg.c **** 			{0x4Au, 0xFFu},
 396:Generated_Source\PSoC4/cyfitter_cfg.c **** 			{0x4Bu, 0xFFu},
 397:Generated_Source\PSoC4/cyfitter_cfg.c **** 			{0x4Fu, 0x01u},
 398:Generated_Source\PSoC4/cyfitter_cfg.c **** 			{0x50u, 0x18u},
 399:Generated_Source\PSoC4/cyfitter_cfg.c **** 			{0x58u, 0x04u},
 400:Generated_Source\PSoC4/cyfitter_cfg.c **** 			{0x5Au, 0x04u},
 401:Generated_Source\PSoC4/cyfitter_cfg.c **** 			{0x5Cu, 0x01u},
 402:Generated_Source\PSoC4/cyfitter_cfg.c **** 			{0x5Du, 0x01u},
 403:Generated_Source\PSoC4/cyfitter_cfg.c **** 			{0x5Fu, 0x01u},
 404:Generated_Source\PSoC4/cyfitter_cfg.c **** 			{0x60u, 0x40u},
 405:Generated_Source\PSoC4/cyfitter_cfg.c **** 			{0x62u, 0x40u},
 406:Generated_Source\PSoC4/cyfitter_cfg.c **** 			{0x64u, 0x40u},
 407:Generated_Source\PSoC4/cyfitter_cfg.c **** 			{0x65u, 0x40u},
 408:Generated_Source\PSoC4/cyfitter_cfg.c **** 			{0x66u, 0x80u},
 409:Generated_Source\PSoC4/cyfitter_cfg.c **** 			{0x68u, 0x80u},
 410:Generated_Source\PSoC4/cyfitter_cfg.c **** 			{0x6Au, 0x80u},
 411:Generated_Source\PSoC4/cyfitter_cfg.c **** 			{0x6Cu, 0x80u},
 412:Generated_Source\PSoC4/cyfitter_cfg.c **** 			{0x6Eu, 0x80u},
 413:Generated_Source\PSoC4/cyfitter_cfg.c **** 			{0x87u, 0x1Eu},
 414:Generated_Source\PSoC4/cyfitter_cfg.c **** 			{0x89u, 0x01u},
 415:Generated_Source\PSoC4/cyfitter_cfg.c **** 			{0x8Du, 0x18u},
 416:Generated_Source\PSoC4/cyfitter_cfg.c **** 			{0x8Eu, 0x01u},
 417:Generated_Source\PSoC4/cyfitter_cfg.c **** 			{0x8Fu, 0x04u},
 418:Generated_Source\PSoC4/cyfitter_cfg.c **** 			{0x95u, 0x0Eu},
 419:Generated_Source\PSoC4/cyfitter_cfg.c **** 			{0x98u, 0x01u},
 420:Generated_Source\PSoC4/cyfitter_cfg.c **** 			{0x9Du, 0x16u},
 421:Generated_Source\PSoC4/cyfitter_cfg.c **** 			{0x9Fu, 0x08u},
 422:Generated_Source\PSoC4/cyfitter_cfg.c **** 			{0xA3u, 0x01u},
 423:Generated_Source\PSoC4/cyfitter_cfg.c **** 			{0xA5u, 0x18u},
 424:Generated_Source\PSoC4/cyfitter_cfg.c **** 			{0xA7u, 0x02u},
 425:Generated_Source\PSoC4/cyfitter_cfg.c **** 			{0xA9u, 0x10u},
 426:Generated_Source\PSoC4/cyfitter_cfg.c **** 			{0xABu, 0x02u},
ARM GAS  C:\Users\kratz\AppData\Local\Temp\cc1LLP2W.s 			page 16


 427:Generated_Source\PSoC4/cyfitter_cfg.c **** 			{0xAEu, 0x02u},
 428:Generated_Source\PSoC4/cyfitter_cfg.c **** 			{0xB0u, 0x01u},
 429:Generated_Source\PSoC4/cyfitter_cfg.c **** 			{0xB1u, 0x01u},
 430:Generated_Source\PSoC4/cyfitter_cfg.c **** 			{0xB2u, 0x02u},
 431:Generated_Source\PSoC4/cyfitter_cfg.c **** 			{0xB7u, 0x1Eu},
 432:Generated_Source\PSoC4/cyfitter_cfg.c **** 			{0xBEu, 0x01u},
 433:Generated_Source\PSoC4/cyfitter_cfg.c **** 			{0xBFu, 0x01u},
 434:Generated_Source\PSoC4/cyfitter_cfg.c **** 			{0xC0u, 0x41u},
 435:Generated_Source\PSoC4/cyfitter_cfg.c **** 			{0xC9u, 0xFFu},
 436:Generated_Source\PSoC4/cyfitter_cfg.c **** 			{0xCAu, 0xFFu},
 437:Generated_Source\PSoC4/cyfitter_cfg.c **** 			{0xCBu, 0xFFu},
 438:Generated_Source\PSoC4/cyfitter_cfg.c **** 			{0xCDu, 0x83u},
 439:Generated_Source\PSoC4/cyfitter_cfg.c **** 			{0xCEu, 0x03u},
 440:Generated_Source\PSoC4/cyfitter_cfg.c **** 			{0xCFu, 0x01u},
 441:Generated_Source\PSoC4/cyfitter_cfg.c **** 			{0xD0u, 0x18u},
 442:Generated_Source\PSoC4/cyfitter_cfg.c **** 			{0xD2u, 0x80u},
 443:Generated_Source\PSoC4/cyfitter_cfg.c **** 			{0xD4u, 0x0Fu},
 444:Generated_Source\PSoC4/cyfitter_cfg.c **** 			{0xD8u, 0x04u},
 445:Generated_Source\PSoC4/cyfitter_cfg.c **** 			{0xD9u, 0x04u},
 446:Generated_Source\PSoC4/cyfitter_cfg.c **** 			{0xDAu, 0x04u},
 447:Generated_Source\PSoC4/cyfitter_cfg.c **** 			{0xDBu, 0x04u},
 448:Generated_Source\PSoC4/cyfitter_cfg.c **** 			{0xDCu, 0x11u},
 449:Generated_Source\PSoC4/cyfitter_cfg.c **** 			{0xDDu, 0x11u},
 450:Generated_Source\PSoC4/cyfitter_cfg.c **** 			{0xDFu, 0x05u},
 451:Generated_Source\PSoC4/cyfitter_cfg.c **** 			{0xE0u, 0x40u},
 452:Generated_Source\PSoC4/cyfitter_cfg.c **** 			{0xE2u, 0x40u},
 453:Generated_Source\PSoC4/cyfitter_cfg.c **** 			{0xE4u, 0x40u},
 454:Generated_Source\PSoC4/cyfitter_cfg.c **** 			{0xE5u, 0x40u},
 455:Generated_Source\PSoC4/cyfitter_cfg.c **** 			{0xE6u, 0x80u},
 456:Generated_Source\PSoC4/cyfitter_cfg.c **** 			{0xE8u, 0x80u},
 457:Generated_Source\PSoC4/cyfitter_cfg.c **** 			{0xEAu, 0x80u},
 458:Generated_Source\PSoC4/cyfitter_cfg.c **** 			{0xECu, 0x80u},
 459:Generated_Source\PSoC4/cyfitter_cfg.c **** 			{0xEEu, 0x80u},
 460:Generated_Source\PSoC4/cyfitter_cfg.c **** 			{0x00u, 0x04u},
 461:Generated_Source\PSoC4/cyfitter_cfg.c **** 			{0x04u, 0x80u},
 462:Generated_Source\PSoC4/cyfitter_cfg.c **** 			{0x08u, 0x0Cu},
 463:Generated_Source\PSoC4/cyfitter_cfg.c **** 			{0x09u, 0x40u},
 464:Generated_Source\PSoC4/cyfitter_cfg.c **** 			{0x0Bu, 0x04u},
 465:Generated_Source\PSoC4/cyfitter_cfg.c **** 			{0x0Du, 0x20u},
 466:Generated_Source\PSoC4/cyfitter_cfg.c **** 			{0x12u, 0x88u},
 467:Generated_Source\PSoC4/cyfitter_cfg.c **** 			{0x16u, 0x02u},
 468:Generated_Source\PSoC4/cyfitter_cfg.c **** 			{0x18u, 0x04u},
 469:Generated_Source\PSoC4/cyfitter_cfg.c **** 			{0x1Au, 0x04u},
 470:Generated_Source\PSoC4/cyfitter_cfg.c **** 			{0x1Bu, 0x10u},
 471:Generated_Source\PSoC4/cyfitter_cfg.c **** 			{0x1Eu, 0x90u},
 472:Generated_Source\PSoC4/cyfitter_cfg.c **** 			{0x24u, 0x02u},
 473:Generated_Source\PSoC4/cyfitter_cfg.c **** 			{0x25u, 0x40u},
 474:Generated_Source\PSoC4/cyfitter_cfg.c **** 			{0x26u, 0x01u},
 475:Generated_Source\PSoC4/cyfitter_cfg.c **** 			{0x2Cu, 0x04u},
 476:Generated_Source\PSoC4/cyfitter_cfg.c **** 			{0x2Eu, 0x06u},
 477:Generated_Source\PSoC4/cyfitter_cfg.c **** 			{0x2Fu, 0x80u},
 478:Generated_Source\PSoC4/cyfitter_cfg.c **** 			{0x36u, 0x88u},
 479:Generated_Source\PSoC4/cyfitter_cfg.c **** 			{0x3Du, 0x80u},
 480:Generated_Source\PSoC4/cyfitter_cfg.c **** 			{0x3Eu, 0x10u},
 481:Generated_Source\PSoC4/cyfitter_cfg.c **** 			{0x3Fu, 0x04u},
 482:Generated_Source\PSoC4/cyfitter_cfg.c **** 			{0x43u, 0x02u},
 483:Generated_Source\PSoC4/cyfitter_cfg.c **** 			{0x46u, 0x41u},
ARM GAS  C:\Users\kratz\AppData\Local\Temp\cc1LLP2W.s 			page 17


 484:Generated_Source\PSoC4/cyfitter_cfg.c **** 			{0x48u, 0x01u},
 485:Generated_Source\PSoC4/cyfitter_cfg.c **** 			{0x5Cu, 0x20u},
 486:Generated_Source\PSoC4/cyfitter_cfg.c **** 			{0x5Eu, 0x8Au},
 487:Generated_Source\PSoC4/cyfitter_cfg.c **** 			{0x66u, 0x28u},
 488:Generated_Source\PSoC4/cyfitter_cfg.c **** 			{0x74u, 0x01u},
 489:Generated_Source\PSoC4/cyfitter_cfg.c **** 			{0x76u, 0x40u},
 490:Generated_Source\PSoC4/cyfitter_cfg.c **** 			{0x7Eu, 0x08u},
 491:Generated_Source\PSoC4/cyfitter_cfg.c **** 			{0x81u, 0x01u},
 492:Generated_Source\PSoC4/cyfitter_cfg.c **** 			{0x87u, 0x40u},
 493:Generated_Source\PSoC4/cyfitter_cfg.c **** 			{0xC0u, 0x84u},
 494:Generated_Source\PSoC4/cyfitter_cfg.c **** 			{0xC2u, 0x47u},
 495:Generated_Source\PSoC4/cyfitter_cfg.c **** 			{0xC4u, 0x8Au},
 496:Generated_Source\PSoC4/cyfitter_cfg.c **** 			{0xCAu, 0xE0u},
 497:Generated_Source\PSoC4/cyfitter_cfg.c **** 			{0xCCu, 0x50u},
 498:Generated_Source\PSoC4/cyfitter_cfg.c **** 			{0xCEu, 0x70u},
 499:Generated_Source\PSoC4/cyfitter_cfg.c **** 			{0xD0u, 0x91u},
 500:Generated_Source\PSoC4/cyfitter_cfg.c **** 			{0xD2u, 0x08u},
 501:Generated_Source\PSoC4/cyfitter_cfg.c **** 			{0xD6u, 0xF0u},
 502:Generated_Source\PSoC4/cyfitter_cfg.c **** 			{0xD8u, 0x60u},
 503:Generated_Source\PSoC4/cyfitter_cfg.c **** 			{0xDEu, 0x20u},
 504:Generated_Source\PSoC4/cyfitter_cfg.c **** 			{0x03u, 0x01u},
 505:Generated_Source\PSoC4/cyfitter_cfg.c **** 			{0x04u, 0x02u},
 506:Generated_Source\PSoC4/cyfitter_cfg.c **** 			{0x05u, 0x04u},
 507:Generated_Source\PSoC4/cyfitter_cfg.c **** 			{0x0Eu, 0x01u},
 508:Generated_Source\PSoC4/cyfitter_cfg.c **** 			{0x29u, 0x02u},
 509:Generated_Source\PSoC4/cyfitter_cfg.c **** 			{0x2Fu, 0x01u},
 510:Generated_Source\PSoC4/cyfitter_cfg.c **** 			{0x31u, 0x01u},
 511:Generated_Source\PSoC4/cyfitter_cfg.c **** 			{0x32u, 0x02u},
 512:Generated_Source\PSoC4/cyfitter_cfg.c **** 			{0x34u, 0x01u},
 513:Generated_Source\PSoC4/cyfitter_cfg.c **** 			{0x35u, 0x02u},
 514:Generated_Source\PSoC4/cyfitter_cfg.c **** 			{0x37u, 0x04u},
 515:Generated_Source\PSoC4/cyfitter_cfg.c **** 			{0x3Eu, 0x04u},
 516:Generated_Source\PSoC4/cyfitter_cfg.c **** 			{0x3Fu, 0x51u},
 517:Generated_Source\PSoC4/cyfitter_cfg.c **** 			{0x40u, 0x41u},
 518:Generated_Source\PSoC4/cyfitter_cfg.c **** 			{0x45u, 0xECu},
 519:Generated_Source\PSoC4/cyfitter_cfg.c **** 			{0x47u, 0x20u},
 520:Generated_Source\PSoC4/cyfitter_cfg.c **** 			{0x48u, 0x23u},
 521:Generated_Source\PSoC4/cyfitter_cfg.c **** 			{0x49u, 0xFFu},
 522:Generated_Source\PSoC4/cyfitter_cfg.c **** 			{0x4Au, 0xFFu},
 523:Generated_Source\PSoC4/cyfitter_cfg.c **** 			{0x4Bu, 0xFFu},
 524:Generated_Source\PSoC4/cyfitter_cfg.c **** 			{0x4Du, 0x83u},
 525:Generated_Source\PSoC4/cyfitter_cfg.c **** 			{0x4Eu, 0x03u},
 526:Generated_Source\PSoC4/cyfitter_cfg.c **** 			{0x4Fu, 0x01u},
 527:Generated_Source\PSoC4/cyfitter_cfg.c **** 			{0x50u, 0x18u},
 528:Generated_Source\PSoC4/cyfitter_cfg.c **** 			{0x54u, 0x01u},
 529:Generated_Source\PSoC4/cyfitter_cfg.c **** 			{0x56u, 0x04u},
 530:Generated_Source\PSoC4/cyfitter_cfg.c **** 			{0x58u, 0x04u},
 531:Generated_Source\PSoC4/cyfitter_cfg.c **** 			{0x59u, 0x04u},
 532:Generated_Source\PSoC4/cyfitter_cfg.c **** 			{0x5Au, 0x04u},
 533:Generated_Source\PSoC4/cyfitter_cfg.c **** 			{0x5Bu, 0x04u},
 534:Generated_Source\PSoC4/cyfitter_cfg.c **** 			{0x5Cu, 0x01u},
 535:Generated_Source\PSoC4/cyfitter_cfg.c **** 			{0x5Du, 0x11u},
 536:Generated_Source\PSoC4/cyfitter_cfg.c **** 			{0x5Fu, 0x01u},
 537:Generated_Source\PSoC4/cyfitter_cfg.c **** 			{0x60u, 0x40u},
 538:Generated_Source\PSoC4/cyfitter_cfg.c **** 			{0x62u, 0x40u},
 539:Generated_Source\PSoC4/cyfitter_cfg.c **** 			{0x64u, 0x40u},
 540:Generated_Source\PSoC4/cyfitter_cfg.c **** 			{0x65u, 0x40u},
ARM GAS  C:\Users\kratz\AppData\Local\Temp\cc1LLP2W.s 			page 18


 541:Generated_Source\PSoC4/cyfitter_cfg.c **** 			{0x66u, 0x80u},
 542:Generated_Source\PSoC4/cyfitter_cfg.c **** 			{0x68u, 0x80u},
 543:Generated_Source\PSoC4/cyfitter_cfg.c **** 			{0x6Au, 0x80u},
 544:Generated_Source\PSoC4/cyfitter_cfg.c **** 			{0x6Cu, 0x80u},
 545:Generated_Source\PSoC4/cyfitter_cfg.c **** 			{0x6Eu, 0x80u},
 546:Generated_Source\PSoC4/cyfitter_cfg.c **** 			{0x81u, 0x14u},
 547:Generated_Source\PSoC4/cyfitter_cfg.c **** 			{0x83u, 0x0Au},
 548:Generated_Source\PSoC4/cyfitter_cfg.c **** 			{0x85u, 0x0Au},
 549:Generated_Source\PSoC4/cyfitter_cfg.c **** 			{0x86u, 0x01u},
 550:Generated_Source\PSoC4/cyfitter_cfg.c **** 			{0x87u, 0x14u},
 551:Generated_Source\PSoC4/cyfitter_cfg.c **** 			{0x89u, 0x01u},
 552:Generated_Source\PSoC4/cyfitter_cfg.c **** 			{0x8Au, 0x01u},
 553:Generated_Source\PSoC4/cyfitter_cfg.c **** 			{0x8Fu, 0x01u},
 554:Generated_Source\PSoC4/cyfitter_cfg.c **** 			{0x95u, 0x0Eu},
 555:Generated_Source\PSoC4/cyfitter_cfg.c **** 			{0x98u, 0x01u},
 556:Generated_Source\PSoC4/cyfitter_cfg.c **** 			{0x99u, 0x06u},
 557:Generated_Source\PSoC4/cyfitter_cfg.c **** 			{0x9Bu, 0x18u},
 558:Generated_Source\PSoC4/cyfitter_cfg.c **** 			{0x9Du, 0x1Eu},
 559:Generated_Source\PSoC4/cyfitter_cfg.c **** 			{0xA5u, 0x18u},
 560:Generated_Source\PSoC4/cyfitter_cfg.c **** 			{0xA7u, 0x06u},
 561:Generated_Source\PSoC4/cyfitter_cfg.c **** 			{0xA9u, 0x01u},
 562:Generated_Source\PSoC4/cyfitter_cfg.c **** 			{0xB3u, 0x01u},
 563:Generated_Source\PSoC4/cyfitter_cfg.c **** 			{0xB6u, 0x01u},
 564:Generated_Source\PSoC4/cyfitter_cfg.c **** 			{0xB7u, 0x1Eu},
 565:Generated_Source\PSoC4/cyfitter_cfg.c **** 			{0xBEu, 0x40u},
 566:Generated_Source\PSoC4/cyfitter_cfg.c **** 			{0xBFu, 0x04u},
 567:Generated_Source\PSoC4/cyfitter_cfg.c **** 			{0xD4u, 0x0Fu},
 568:Generated_Source\PSoC4/cyfitter_cfg.c **** 			{0xD6u, 0x04u},
 569:Generated_Source\PSoC4/cyfitter_cfg.c **** 			{0xD8u, 0x04u},
 570:Generated_Source\PSoC4/cyfitter_cfg.c **** 			{0xD9u, 0x04u},
 571:Generated_Source\PSoC4/cyfitter_cfg.c **** 			{0xDBu, 0x04u},
 572:Generated_Source\PSoC4/cyfitter_cfg.c **** 			{0xDCu, 0x10u},
 573:Generated_Source\PSoC4/cyfitter_cfg.c **** 			{0xDDu, 0x10u},
 574:Generated_Source\PSoC4/cyfitter_cfg.c **** 			{0xDFu, 0x01u},
 575:Generated_Source\PSoC4/cyfitter_cfg.c **** 			{0x00u, 0x28u},
 576:Generated_Source\PSoC4/cyfitter_cfg.c **** 			{0x04u, 0x80u},
 577:Generated_Source\PSoC4/cyfitter_cfg.c **** 			{0x07u, 0x10u},
 578:Generated_Source\PSoC4/cyfitter_cfg.c **** 			{0x09u, 0x20u},
 579:Generated_Source\PSoC4/cyfitter_cfg.c **** 			{0x19u, 0x80u},
 580:Generated_Source\PSoC4/cyfitter_cfg.c **** 			{0x1Du, 0x20u},
 581:Generated_Source\PSoC4/cyfitter_cfg.c **** 			{0x1Eu, 0x20u},
 582:Generated_Source\PSoC4/cyfitter_cfg.c **** 			{0x1Fu, 0x10u},
 583:Generated_Source\PSoC4/cyfitter_cfg.c **** 			{0x22u, 0x80u},
 584:Generated_Source\PSoC4/cyfitter_cfg.c **** 			{0x23u, 0x20u},
 585:Generated_Source\PSoC4/cyfitter_cfg.c **** 			{0x24u, 0x40u},
 586:Generated_Source\PSoC4/cyfitter_cfg.c **** 			{0x27u, 0x0Au},
 587:Generated_Source\PSoC4/cyfitter_cfg.c **** 			{0x29u, 0x20u},
 588:Generated_Source\PSoC4/cyfitter_cfg.c **** 			{0x2Bu, 0x10u},
 589:Generated_Source\PSoC4/cyfitter_cfg.c **** 			{0x2Fu, 0x0Au},
 590:Generated_Source\PSoC4/cyfitter_cfg.c **** 			{0x30u, 0x04u},
 591:Generated_Source\PSoC4/cyfitter_cfg.c **** 			{0x31u, 0x10u},
 592:Generated_Source\PSoC4/cyfitter_cfg.c **** 			{0x32u, 0x88u},
 593:Generated_Source\PSoC4/cyfitter_cfg.c **** 			{0x38u, 0x02u},
 594:Generated_Source\PSoC4/cyfitter_cfg.c **** 			{0x3Bu, 0xA4u},
 595:Generated_Source\PSoC4/cyfitter_cfg.c **** 			{0x3Cu, 0x02u},
 596:Generated_Source\PSoC4/cyfitter_cfg.c **** 			{0x3Du, 0x04u},
 597:Generated_Source\PSoC4/cyfitter_cfg.c **** 			{0x46u, 0x41u},
ARM GAS  C:\Users\kratz\AppData\Local\Temp\cc1LLP2W.s 			page 19


 598:Generated_Source\PSoC4/cyfitter_cfg.c **** 			{0x4Du, 0x09u},
 599:Generated_Source\PSoC4/cyfitter_cfg.c **** 			{0x56u, 0x01u},
 600:Generated_Source\PSoC4/cyfitter_cfg.c **** 			{0x57u, 0x02u},
 601:Generated_Source\PSoC4/cyfitter_cfg.c **** 			{0x58u, 0x06u},
 602:Generated_Source\PSoC4/cyfitter_cfg.c **** 			{0x59u, 0x80u},
 603:Generated_Source\PSoC4/cyfitter_cfg.c **** 			{0x5Bu, 0x20u},
 604:Generated_Source\PSoC4/cyfitter_cfg.c **** 			{0x5Cu, 0x40u},
 605:Generated_Source\PSoC4/cyfitter_cfg.c **** 			{0x5Du, 0x09u},
 606:Generated_Source\PSoC4/cyfitter_cfg.c **** 			{0x60u, 0x02u},
 607:Generated_Source\PSoC4/cyfitter_cfg.c **** 			{0x62u, 0x80u},
 608:Generated_Source\PSoC4/cyfitter_cfg.c **** 			{0x63u, 0x40u},
 609:Generated_Source\PSoC4/cyfitter_cfg.c **** 			{0x65u, 0x01u},
 610:Generated_Source\PSoC4/cyfitter_cfg.c **** 			{0x84u, 0x20u},
 611:Generated_Source\PSoC4/cyfitter_cfg.c **** 			{0x87u, 0x80u},
 612:Generated_Source\PSoC4/cyfitter_cfg.c **** 			{0x89u, 0x04u},
 613:Generated_Source\PSoC4/cyfitter_cfg.c **** 			{0x90u, 0x02u},
 614:Generated_Source\PSoC4/cyfitter_cfg.c **** 			{0x92u, 0x04u},
 615:Generated_Source\PSoC4/cyfitter_cfg.c **** 			{0x94u, 0x80u},
 616:Generated_Source\PSoC4/cyfitter_cfg.c **** 			{0x97u, 0x44u},
 617:Generated_Source\PSoC4/cyfitter_cfg.c **** 			{0x9Au, 0x40u},
 618:Generated_Source\PSoC4/cyfitter_cfg.c **** 			{0x9Cu, 0x28u},
 619:Generated_Source\PSoC4/cyfitter_cfg.c **** 			{0x9Du, 0x01u},
 620:Generated_Source\PSoC4/cyfitter_cfg.c **** 			{0x9Eu, 0x29u},
 621:Generated_Source\PSoC4/cyfitter_cfg.c **** 			{0xA0u, 0x01u},
 622:Generated_Source\PSoC4/cyfitter_cfg.c **** 			{0xA1u, 0x40u},
 623:Generated_Source\PSoC4/cyfitter_cfg.c **** 			{0xA3u, 0x10u},
 624:Generated_Source\PSoC4/cyfitter_cfg.c **** 			{0xA5u, 0x20u},
 625:Generated_Source\PSoC4/cyfitter_cfg.c **** 			{0xA6u, 0x8Cu},
 626:Generated_Source\PSoC4/cyfitter_cfg.c **** 			{0xA7u, 0x82u},
 627:Generated_Source\PSoC4/cyfitter_cfg.c **** 			{0xC0u, 0xA6u},
 628:Generated_Source\PSoC4/cyfitter_cfg.c **** 			{0xC2u, 0x02u},
 629:Generated_Source\PSoC4/cyfitter_cfg.c **** 			{0xCAu, 0x36u},
 630:Generated_Source\PSoC4/cyfitter_cfg.c **** 			{0xCCu, 0x0Eu},
 631:Generated_Source\PSoC4/cyfitter_cfg.c **** 			{0xCEu, 0xCFu},
 632:Generated_Source\PSoC4/cyfitter_cfg.c **** 			{0xD0u, 0x90u},
 633:Generated_Source\PSoC4/cyfitter_cfg.c **** 			{0xD6u, 0xDFu},
 634:Generated_Source\PSoC4/cyfitter_cfg.c **** 			{0xD8u, 0x81u},
 635:Generated_Source\PSoC4/cyfitter_cfg.c **** 			{0xE0u, 0x20u},
 636:Generated_Source\PSoC4/cyfitter_cfg.c **** 			{0x0Eu, 0x01u},
 637:Generated_Source\PSoC4/cyfitter_cfg.c **** 			{0x15u, 0x03u},
 638:Generated_Source\PSoC4/cyfitter_cfg.c **** 			{0x1Du, 0x05u},
 639:Generated_Source\PSoC4/cyfitter_cfg.c **** 			{0x21u, 0x06u},
 640:Generated_Source\PSoC4/cyfitter_cfg.c **** 			{0x25u, 0x06u},
 641:Generated_Source\PSoC4/cyfitter_cfg.c **** 			{0x2Fu, 0x08u},
 642:Generated_Source\PSoC4/cyfitter_cfg.c **** 			{0x33u, 0x07u},
 643:Generated_Source\PSoC4/cyfitter_cfg.c **** 			{0x34u, 0x01u},
 644:Generated_Source\PSoC4/cyfitter_cfg.c **** 			{0x35u, 0x08u},
 645:Generated_Source\PSoC4/cyfitter_cfg.c **** 			{0x39u, 0x08u},
 646:Generated_Source\PSoC4/cyfitter_cfg.c **** 			{0x40u, 0x24u},
 647:Generated_Source\PSoC4/cyfitter_cfg.c **** 			{0x41u, 0x06u},
 648:Generated_Source\PSoC4/cyfitter_cfg.c **** 			{0x49u, 0xFFu},
 649:Generated_Source\PSoC4/cyfitter_cfg.c **** 			{0x4Au, 0xFFu},
 650:Generated_Source\PSoC4/cyfitter_cfg.c **** 			{0x4Bu, 0xFFu},
 651:Generated_Source\PSoC4/cyfitter_cfg.c **** 			{0x4Du, 0xA0u},
 652:Generated_Source\PSoC4/cyfitter_cfg.c **** 			{0x4Fu, 0x01u},
 653:Generated_Source\PSoC4/cyfitter_cfg.c **** 			{0x50u, 0x18u},
 654:Generated_Source\PSoC4/cyfitter_cfg.c **** 			{0x58u, 0x04u},
ARM GAS  C:\Users\kratz\AppData\Local\Temp\cc1LLP2W.s 			page 20


 655:Generated_Source\PSoC4/cyfitter_cfg.c **** 			{0x59u, 0x04u},
 656:Generated_Source\PSoC4/cyfitter_cfg.c **** 			{0x5Au, 0x04u},
 657:Generated_Source\PSoC4/cyfitter_cfg.c **** 			{0x5Cu, 0x11u},
 658:Generated_Source\PSoC4/cyfitter_cfg.c **** 			{0x5Du, 0x01u},
 659:Generated_Source\PSoC4/cyfitter_cfg.c **** 			{0x5Fu, 0x01u},
 660:Generated_Source\PSoC4/cyfitter_cfg.c **** 			{0x60u, 0x40u},
 661:Generated_Source\PSoC4/cyfitter_cfg.c **** 			{0x62u, 0x80u},
 662:Generated_Source\PSoC4/cyfitter_cfg.c **** 			{0x64u, 0x40u},
 663:Generated_Source\PSoC4/cyfitter_cfg.c **** 			{0x65u, 0x40u},
 664:Generated_Source\PSoC4/cyfitter_cfg.c **** 			{0x66u, 0x80u},
 665:Generated_Source\PSoC4/cyfitter_cfg.c **** 			{0x68u, 0x40u},
 666:Generated_Source\PSoC4/cyfitter_cfg.c **** 			{0x6Au, 0x80u},
 667:Generated_Source\PSoC4/cyfitter_cfg.c **** 			{0x6Cu, 0x40u},
 668:Generated_Source\PSoC4/cyfitter_cfg.c **** 			{0x6Du, 0x20u},
 669:Generated_Source\PSoC4/cyfitter_cfg.c **** 			{0x6Eu, 0x80u},
 670:Generated_Source\PSoC4/cyfitter_cfg.c **** 			{0x83u, 0x01u},
 671:Generated_Source\PSoC4/cyfitter_cfg.c **** 			{0x87u, 0x02u},
 672:Generated_Source\PSoC4/cyfitter_cfg.c **** 			{0x8Bu, 0x04u},
 673:Generated_Source\PSoC4/cyfitter_cfg.c **** 			{0x8Du, 0x02u},
 674:Generated_Source\PSoC4/cyfitter_cfg.c **** 			{0x91u, 0x01u},
 675:Generated_Source\PSoC4/cyfitter_cfg.c **** 			{0x97u, 0x09u},
 676:Generated_Source\PSoC4/cyfitter_cfg.c **** 			{0x98u, 0x03u},
 677:Generated_Source\PSoC4/cyfitter_cfg.c **** 			{0x99u, 0x02u},
 678:Generated_Source\PSoC4/cyfitter_cfg.c **** 			{0x9Au, 0x0Cu},
 679:Generated_Source\PSoC4/cyfitter_cfg.c **** 			{0x9Cu, 0x08u},
 680:Generated_Source\PSoC4/cyfitter_cfg.c **** 			{0x9Du, 0x02u},
 681:Generated_Source\PSoC4/cyfitter_cfg.c **** 			{0xA0u, 0x03u},
 682:Generated_Source\PSoC4/cyfitter_cfg.c **** 			{0xA4u, 0x01u},
 683:Generated_Source\PSoC4/cyfitter_cfg.c **** 			{0xA5u, 0x02u},
 684:Generated_Source\PSoC4/cyfitter_cfg.c **** 			{0xB0u, 0x01u},
 685:Generated_Source\PSoC4/cyfitter_cfg.c **** 			{0xB2u, 0x02u},
 686:Generated_Source\PSoC4/cyfitter_cfg.c **** 			{0xB3u, 0x01u},
 687:Generated_Source\PSoC4/cyfitter_cfg.c **** 			{0xB4u, 0x08u},
 688:Generated_Source\PSoC4/cyfitter_cfg.c **** 			{0xB5u, 0x06u},
 689:Generated_Source\PSoC4/cyfitter_cfg.c **** 			{0xB6u, 0x04u},
 690:Generated_Source\PSoC4/cyfitter_cfg.c **** 			{0xB7u, 0x08u},
 691:Generated_Source\PSoC4/cyfitter_cfg.c **** 			{0xB8u, 0x0Au},
 692:Generated_Source\PSoC4/cyfitter_cfg.c **** 			{0xBEu, 0x11u},
 693:Generated_Source\PSoC4/cyfitter_cfg.c **** 			{0xBFu, 0x04u},
 694:Generated_Source\PSoC4/cyfitter_cfg.c **** 			{0xC0u, 0x24u},
 695:Generated_Source\PSoC4/cyfitter_cfg.c **** 			{0xC1u, 0x06u},
 696:Generated_Source\PSoC4/cyfitter_cfg.c **** 			{0xC5u, 0x43u},
 697:Generated_Source\PSoC4/cyfitter_cfg.c **** 			{0xC6u, 0xC2u},
 698:Generated_Source\PSoC4/cyfitter_cfg.c **** 			{0xC7u, 0x0Eu},
 699:Generated_Source\PSoC4/cyfitter_cfg.c **** 			{0xC8u, 0x1Fu},
 700:Generated_Source\PSoC4/cyfitter_cfg.c **** 			{0xC9u, 0xFFu},
 701:Generated_Source\PSoC4/cyfitter_cfg.c **** 			{0xCAu, 0xFFu},
 702:Generated_Source\PSoC4/cyfitter_cfg.c **** 			{0xCBu, 0xFFu},
 703:Generated_Source\PSoC4/cyfitter_cfg.c **** 			{0xCDu, 0xAFu},
 704:Generated_Source\PSoC4/cyfitter_cfg.c **** 			{0xCEu, 0x07u},
 705:Generated_Source\PSoC4/cyfitter_cfg.c **** 			{0xCFu, 0x01u},
 706:Generated_Source\PSoC4/cyfitter_cfg.c **** 			{0xD0u, 0x18u},
 707:Generated_Source\PSoC4/cyfitter_cfg.c **** 			{0xD2u, 0x80u},
 708:Generated_Source\PSoC4/cyfitter_cfg.c **** 			{0xD8u, 0x04u},
 709:Generated_Source\PSoC4/cyfitter_cfg.c **** 			{0xD9u, 0x04u},
 710:Generated_Source\PSoC4/cyfitter_cfg.c **** 			{0xDAu, 0x04u},
 711:Generated_Source\PSoC4/cyfitter_cfg.c **** 			{0xDBu, 0x04u},
ARM GAS  C:\Users\kratz\AppData\Local\Temp\cc1LLP2W.s 			page 21


 712:Generated_Source\PSoC4/cyfitter_cfg.c **** 			{0xDCu, 0x11u},
 713:Generated_Source\PSoC4/cyfitter_cfg.c **** 			{0xDDu, 0x11u},
 714:Generated_Source\PSoC4/cyfitter_cfg.c **** 			{0xDFu, 0x01u},
 715:Generated_Source\PSoC4/cyfitter_cfg.c **** 			{0xE0u, 0x40u},
 716:Generated_Source\PSoC4/cyfitter_cfg.c **** 			{0xE2u, 0x80u},
 717:Generated_Source\PSoC4/cyfitter_cfg.c **** 			{0xE4u, 0x40u},
 718:Generated_Source\PSoC4/cyfitter_cfg.c **** 			{0xE5u, 0x40u},
 719:Generated_Source\PSoC4/cyfitter_cfg.c **** 			{0xE6u, 0x80u},
 720:Generated_Source\PSoC4/cyfitter_cfg.c **** 			{0xE8u, 0x40u},
 721:Generated_Source\PSoC4/cyfitter_cfg.c **** 			{0xEAu, 0x80u},
 722:Generated_Source\PSoC4/cyfitter_cfg.c **** 			{0xECu, 0x40u},
 723:Generated_Source\PSoC4/cyfitter_cfg.c **** 			{0xEDu, 0x20u},
 724:Generated_Source\PSoC4/cyfitter_cfg.c **** 			{0xEEu, 0x80u},
 725:Generated_Source\PSoC4/cyfitter_cfg.c **** 			{0x01u, 0x80u},
 726:Generated_Source\PSoC4/cyfitter_cfg.c **** 			{0x0Eu, 0x02u},
 727:Generated_Source\PSoC4/cyfitter_cfg.c **** 			{0x0Fu, 0x08u},
 728:Generated_Source\PSoC4/cyfitter_cfg.c **** 			{0x11u, 0x80u},
 729:Generated_Source\PSoC4/cyfitter_cfg.c **** 			{0x12u, 0x01u},
 730:Generated_Source\PSoC4/cyfitter_cfg.c **** 			{0x15u, 0x08u},
 731:Generated_Source\PSoC4/cyfitter_cfg.c **** 			{0x16u, 0x80u},
 732:Generated_Source\PSoC4/cyfitter_cfg.c **** 			{0x19u, 0x10u},
 733:Generated_Source\PSoC4/cyfitter_cfg.c **** 			{0x1Cu, 0x60u},
 734:Generated_Source\PSoC4/cyfitter_cfg.c **** 			{0x1Du, 0x02u},
 735:Generated_Source\PSoC4/cyfitter_cfg.c **** 			{0x1Eu, 0x0Au},
 736:Generated_Source\PSoC4/cyfitter_cfg.c **** 			{0x21u, 0x04u},
 737:Generated_Source\PSoC4/cyfitter_cfg.c **** 			{0x22u, 0x08u},
 738:Generated_Source\PSoC4/cyfitter_cfg.c **** 			{0x23u, 0x14u},
 739:Generated_Source\PSoC4/cyfitter_cfg.c **** 			{0x27u, 0x15u},
 740:Generated_Source\PSoC4/cyfitter_cfg.c **** 			{0x28u, 0x02u},
 741:Generated_Source\PSoC4/cyfitter_cfg.c **** 			{0x29u, 0x08u},
 742:Generated_Source\PSoC4/cyfitter_cfg.c **** 			{0x2Au, 0x01u},
 743:Generated_Source\PSoC4/cyfitter_cfg.c **** 			{0x2Du, 0x08u},
 744:Generated_Source\PSoC4/cyfitter_cfg.c **** 			{0x2Eu, 0x04u},
 745:Generated_Source\PSoC4/cyfitter_cfg.c **** 			{0x32u, 0x88u},
 746:Generated_Source\PSoC4/cyfitter_cfg.c **** 			{0x35u, 0x10u},
 747:Generated_Source\PSoC4/cyfitter_cfg.c **** 			{0x36u, 0x80u},
 748:Generated_Source\PSoC4/cyfitter_cfg.c **** 			{0x37u, 0x05u},
 749:Generated_Source\PSoC4/cyfitter_cfg.c **** 			{0x3Cu, 0x02u},
 750:Generated_Source\PSoC4/cyfitter_cfg.c **** 			{0x3Du, 0xA0u},
 751:Generated_Source\PSoC4/cyfitter_cfg.c **** 			{0x3Fu, 0x04u},
 752:Generated_Source\PSoC4/cyfitter_cfg.c **** 			{0x40u, 0x40u},
 753:Generated_Source\PSoC4/cyfitter_cfg.c **** 			{0x43u, 0x10u},
 754:Generated_Source\PSoC4/cyfitter_cfg.c **** 			{0x45u, 0x02u},
 755:Generated_Source\PSoC4/cyfitter_cfg.c **** 			{0x47u, 0x10u},
 756:Generated_Source\PSoC4/cyfitter_cfg.c **** 			{0x48u, 0x04u},
 757:Generated_Source\PSoC4/cyfitter_cfg.c **** 			{0x49u, 0x20u},
 758:Generated_Source\PSoC4/cyfitter_cfg.c **** 			{0x4Cu, 0x40u},
 759:Generated_Source\PSoC4/cyfitter_cfg.c **** 			{0x4Du, 0x20u},
 760:Generated_Source\PSoC4/cyfitter_cfg.c **** 			{0x4Fu, 0x08u},
 761:Generated_Source\PSoC4/cyfitter_cfg.c **** 			{0x56u, 0xA8u},
 762:Generated_Source\PSoC4/cyfitter_cfg.c **** 			{0x57u, 0x80u},
 763:Generated_Source\PSoC4/cyfitter_cfg.c **** 			{0x5Eu, 0x20u},
 764:Generated_Source\PSoC4/cyfitter_cfg.c **** 			{0x5Fu, 0x4Au},
 765:Generated_Source\PSoC4/cyfitter_cfg.c **** 			{0x64u, 0x08u},
 766:Generated_Source\PSoC4/cyfitter_cfg.c **** 			{0x65u, 0x10u},
 767:Generated_Source\PSoC4/cyfitter_cfg.c **** 			{0x74u, 0x01u},
 768:Generated_Source\PSoC4/cyfitter_cfg.c **** 			{0x92u, 0x04u},
ARM GAS  C:\Users\kratz\AppData\Local\Temp\cc1LLP2W.s 			page 22


 769:Generated_Source\PSoC4/cyfitter_cfg.c **** 			{0x94u, 0x80u},
 770:Generated_Source\PSoC4/cyfitter_cfg.c **** 			{0x97u, 0x04u},
 771:Generated_Source\PSoC4/cyfitter_cfg.c **** 			{0x9Bu, 0x0Au},
 772:Generated_Source\PSoC4/cyfitter_cfg.c **** 			{0x9Cu, 0x08u},
 773:Generated_Source\PSoC4/cyfitter_cfg.c **** 			{0x9Du, 0x30u},
 774:Generated_Source\PSoC4/cyfitter_cfg.c **** 			{0x9Eu, 0x28u},
 775:Generated_Source\PSoC4/cyfitter_cfg.c **** 			{0xA1u, 0x40u},
 776:Generated_Source\PSoC4/cyfitter_cfg.c **** 			{0xA2u, 0x90u},
 777:Generated_Source\PSoC4/cyfitter_cfg.c **** 			{0xA4u, 0x14u},
 778:Generated_Source\PSoC4/cyfitter_cfg.c **** 			{0xA6u, 0x0Cu},
 779:Generated_Source\PSoC4/cyfitter_cfg.c **** 			{0xA7u, 0x80u},
 780:Generated_Source\PSoC4/cyfitter_cfg.c **** 			{0xABu, 0x18u},
 781:Generated_Source\PSoC4/cyfitter_cfg.c **** 			{0xB0u, 0x10u},
 782:Generated_Source\PSoC4/cyfitter_cfg.c **** 			{0xB3u, 0x40u},
 783:Generated_Source\PSoC4/cyfitter_cfg.c **** 			{0xC0u, 0x01u},
 784:Generated_Source\PSoC4/cyfitter_cfg.c **** 			{0xC2u, 0xC0u},
 785:Generated_Source\PSoC4/cyfitter_cfg.c **** 			{0xC4u, 0x30u},
 786:Generated_Source\PSoC4/cyfitter_cfg.c **** 			{0xCAu, 0x4Bu},
 787:Generated_Source\PSoC4/cyfitter_cfg.c **** 			{0xCCu, 0xFAu},
 788:Generated_Source\PSoC4/cyfitter_cfg.c **** 			{0xCEu, 0xF0u},
 789:Generated_Source\PSoC4/cyfitter_cfg.c **** 			{0xD0u, 0xA5u},
 790:Generated_Source\PSoC4/cyfitter_cfg.c **** 			{0xD2u, 0x24u},
 791:Generated_Source\PSoC4/cyfitter_cfg.c **** 			{0xD6u, 0xF0u},
 792:Generated_Source\PSoC4/cyfitter_cfg.c **** 			{0x05u, 0x96u},
 793:Generated_Source\PSoC4/cyfitter_cfg.c **** 			{0x07u, 0x68u},
 794:Generated_Source\PSoC4/cyfitter_cfg.c **** 			{0x09u, 0x7Fu},
 795:Generated_Source\PSoC4/cyfitter_cfg.c **** 			{0x0Du, 0xC5u},
 796:Generated_Source\PSoC4/cyfitter_cfg.c **** 			{0x0Fu, 0x3Au},
 797:Generated_Source\PSoC4/cyfitter_cfg.c **** 			{0x10u, 0x02u},
 798:Generated_Source\PSoC4/cyfitter_cfg.c **** 			{0x17u, 0x01u},
 799:Generated_Source\PSoC4/cyfitter_cfg.c **** 			{0x19u, 0x0Eu},
 800:Generated_Source\PSoC4/cyfitter_cfg.c **** 			{0x1Bu, 0xF0u},
 801:Generated_Source\PSoC4/cyfitter_cfg.c **** 			{0x1Du, 0xFEu},
 802:Generated_Source\PSoC4/cyfitter_cfg.c **** 			{0x1Fu, 0x01u},
 803:Generated_Source\PSoC4/cyfitter_cfg.c **** 			{0x20u, 0x08u},
 804:Generated_Source\PSoC4/cyfitter_cfg.c **** 			{0x24u, 0x01u},
 805:Generated_Source\PSoC4/cyfitter_cfg.c **** 			{0x25u, 0xA3u},
 806:Generated_Source\PSoC4/cyfitter_cfg.c **** 			{0x27u, 0x5Cu},
 807:Generated_Source\PSoC4/cyfitter_cfg.c **** 			{0x2Cu, 0x04u},
 808:Generated_Source\PSoC4/cyfitter_cfg.c **** 			{0x30u, 0x01u},
 809:Generated_Source\PSoC4/cyfitter_cfg.c **** 			{0x32u, 0x02u},
 810:Generated_Source\PSoC4/cyfitter_cfg.c **** 			{0x34u, 0x04u},
 811:Generated_Source\PSoC4/cyfitter_cfg.c **** 			{0x35u, 0xFFu},
 812:Generated_Source\PSoC4/cyfitter_cfg.c **** 			{0x36u, 0x08u},
 813:Generated_Source\PSoC4/cyfitter_cfg.c **** 			{0x3Eu, 0x40u},
 814:Generated_Source\PSoC4/cyfitter_cfg.c **** 			{0x3Fu, 0x10u},
 815:Generated_Source\PSoC4/cyfitter_cfg.c **** 			{0x56u, 0x04u},
 816:Generated_Source\PSoC4/cyfitter_cfg.c **** 			{0x58u, 0x04u},
 817:Generated_Source\PSoC4/cyfitter_cfg.c **** 			{0x59u, 0x04u},
 818:Generated_Source\PSoC4/cyfitter_cfg.c **** 			{0x5Bu, 0x04u},
 819:Generated_Source\PSoC4/cyfitter_cfg.c **** 			{0x5Cu, 0x03u},
 820:Generated_Source\PSoC4/cyfitter_cfg.c **** 			{0x5Fu, 0x01u},
 821:Generated_Source\PSoC4/cyfitter_cfg.c **** 			{0x80u, 0xFDu},
 822:Generated_Source\PSoC4/cyfitter_cfg.c **** 			{0x82u, 0x02u},
 823:Generated_Source\PSoC4/cyfitter_cfg.c **** 			{0x85u, 0x04u},
 824:Generated_Source\PSoC4/cyfitter_cfg.c **** 			{0x86u, 0x0Fu},
 825:Generated_Source\PSoC4/cyfitter_cfg.c **** 			{0x88u, 0x94u},
ARM GAS  C:\Users\kratz\AppData\Local\Temp\cc1LLP2W.s 			page 23


 826:Generated_Source\PSoC4/cyfitter_cfg.c **** 			{0x89u, 0x07u},
 827:Generated_Source\PSoC4/cyfitter_cfg.c **** 			{0x8Au, 0x60u},
 828:Generated_Source\PSoC4/cyfitter_cfg.c **** 			{0x8Du, 0x01u},
 829:Generated_Source\PSoC4/cyfitter_cfg.c **** 			{0x8Fu, 0x02u},
 830:Generated_Source\PSoC4/cyfitter_cfg.c **** 			{0x97u, 0x04u},
 831:Generated_Source\PSoC4/cyfitter_cfg.c **** 			{0x98u, 0xCFu},
 832:Generated_Source\PSoC4/cyfitter_cfg.c **** 			{0x9Au, 0x30u},
 833:Generated_Source\PSoC4/cyfitter_cfg.c **** 			{0x9Bu, 0x07u},
 834:Generated_Source\PSoC4/cyfitter_cfg.c **** 			{0x9Cu, 0x9Eu},
 835:Generated_Source\PSoC4/cyfitter_cfg.c **** 			{0x9Du, 0x07u},
 836:Generated_Source\PSoC4/cyfitter_cfg.c **** 			{0x9Eu, 0x60u},
 837:Generated_Source\PSoC4/cyfitter_cfg.c **** 			{0xA4u, 0x30u},
 838:Generated_Source\PSoC4/cyfitter_cfg.c **** 			{0xA6u, 0xC9u},
 839:Generated_Source\PSoC4/cyfitter_cfg.c **** 			{0xA7u, 0x08u},
 840:Generated_Source\PSoC4/cyfitter_cfg.c **** 			{0xA8u, 0x73u},
 841:Generated_Source\PSoC4/cyfitter_cfg.c **** 			{0xA9u, 0x01u},
 842:Generated_Source\PSoC4/cyfitter_cfg.c **** 			{0xABu, 0x02u},
 843:Generated_Source\PSoC4/cyfitter_cfg.c **** 			{0xB2u, 0xFFu},
 844:Generated_Source\PSoC4/cyfitter_cfg.c **** 			{0xB5u, 0x0Fu},
 845:Generated_Source\PSoC4/cyfitter_cfg.c **** 			{0xBEu, 0x04u},
 846:Generated_Source\PSoC4/cyfitter_cfg.c **** 			{0xD8u, 0x04u},
 847:Generated_Source\PSoC4/cyfitter_cfg.c **** 			{0xD9u, 0x04u},
 848:Generated_Source\PSoC4/cyfitter_cfg.c **** 			{0xDCu, 0x10u},
 849:Generated_Source\PSoC4/cyfitter_cfg.c **** 			{0xDFu, 0x01u},
 850:Generated_Source\PSoC4/cyfitter_cfg.c **** 			{0x00u, 0x08u},
 851:Generated_Source\PSoC4/cyfitter_cfg.c **** 			{0x01u, 0x20u},
 852:Generated_Source\PSoC4/cyfitter_cfg.c **** 			{0x02u, 0x80u},
 853:Generated_Source\PSoC4/cyfitter_cfg.c **** 			{0x09u, 0x40u},
 854:Generated_Source\PSoC4/cyfitter_cfg.c **** 			{0x0Au, 0x0Cu},
 855:Generated_Source\PSoC4/cyfitter_cfg.c **** 			{0x0Du, 0x01u},
 856:Generated_Source\PSoC4/cyfitter_cfg.c **** 			{0x13u, 0x14u},
 857:Generated_Source\PSoC4/cyfitter_cfg.c **** 			{0x15u, 0x01u},
 858:Generated_Source\PSoC4/cyfitter_cfg.c **** 			{0x16u, 0x12u},
 859:Generated_Source\PSoC4/cyfitter_cfg.c **** 			{0x19u, 0x08u},
 860:Generated_Source\PSoC4/cyfitter_cfg.c **** 			{0x1Du, 0x40u},
 861:Generated_Source\PSoC4/cyfitter_cfg.c **** 			{0x1Eu, 0x68u},
 862:Generated_Source\PSoC4/cyfitter_cfg.c **** 			{0x20u, 0x08u},
 863:Generated_Source\PSoC4/cyfitter_cfg.c **** 			{0x22u, 0x10u},
 864:Generated_Source\PSoC4/cyfitter_cfg.c **** 			{0x25u, 0x10u},
 865:Generated_Source\PSoC4/cyfitter_cfg.c **** 			{0x29u, 0x18u},
 866:Generated_Source\PSoC4/cyfitter_cfg.c **** 			{0x2Eu, 0x04u},
 867:Generated_Source\PSoC4/cyfitter_cfg.c **** 			{0x32u, 0x94u},
 868:Generated_Source\PSoC4/cyfitter_cfg.c **** 			{0x35u, 0x30u},
 869:Generated_Source\PSoC4/cyfitter_cfg.c **** 			{0x36u, 0x80u},
 870:Generated_Source\PSoC4/cyfitter_cfg.c **** 			{0x37u, 0x04u},
 871:Generated_Source\PSoC4/cyfitter_cfg.c **** 			{0x38u, 0x40u},
 872:Generated_Source\PSoC4/cyfitter_cfg.c **** 			{0x3Bu, 0x14u},
 873:Generated_Source\PSoC4/cyfitter_cfg.c **** 			{0x3Cu, 0x40u},
 874:Generated_Source\PSoC4/cyfitter_cfg.c **** 			{0x3Du, 0x80u},
 875:Generated_Source\PSoC4/cyfitter_cfg.c **** 			{0x3Fu, 0x14u},
 876:Generated_Source\PSoC4/cyfitter_cfg.c **** 			{0x49u, 0x40u},
 877:Generated_Source\PSoC4/cyfitter_cfg.c **** 			{0x4Bu, 0x40u},
 878:Generated_Source\PSoC4/cyfitter_cfg.c **** 			{0x5Eu, 0x68u},
 879:Generated_Source\PSoC4/cyfitter_cfg.c **** 			{0x67u, 0x80u},
 880:Generated_Source\PSoC4/cyfitter_cfg.c **** 			{0x85u, 0x01u},
 881:Generated_Source\PSoC4/cyfitter_cfg.c **** 			{0x86u, 0x02u},
 882:Generated_Source\PSoC4/cyfitter_cfg.c **** 			{0x87u, 0x40u},
ARM GAS  C:\Users\kratz\AppData\Local\Temp\cc1LLP2W.s 			page 24


 883:Generated_Source\PSoC4/cyfitter_cfg.c **** 			{0x89u, 0x01u},
 884:Generated_Source\PSoC4/cyfitter_cfg.c **** 			{0x92u, 0x04u},
 885:Generated_Source\PSoC4/cyfitter_cfg.c **** 			{0x93u, 0x14u},
 886:Generated_Source\PSoC4/cyfitter_cfg.c **** 			{0x97u, 0x40u},
 887:Generated_Source\PSoC4/cyfitter_cfg.c **** 			{0x99u, 0x10u},
 888:Generated_Source\PSoC4/cyfitter_cfg.c **** 			{0x9Au, 0x10u},
 889:Generated_Source\PSoC4/cyfitter_cfg.c **** 			{0x9Bu, 0x04u},
 890:Generated_Source\PSoC4/cyfitter_cfg.c **** 			{0xA1u, 0x40u},
 891:Generated_Source\PSoC4/cyfitter_cfg.c **** 			{0xA2u, 0x80u},
 892:Generated_Source\PSoC4/cyfitter_cfg.c **** 			{0xA4u, 0x04u},
 893:Generated_Source\PSoC4/cyfitter_cfg.c **** 			{0xA5u, 0x10u},
 894:Generated_Source\PSoC4/cyfitter_cfg.c **** 			{0xA9u, 0x80u},
 895:Generated_Source\PSoC4/cyfitter_cfg.c **** 			{0xB2u, 0x10u},
 896:Generated_Source\PSoC4/cyfitter_cfg.c **** 			{0xB4u, 0x02u},
 897:Generated_Source\PSoC4/cyfitter_cfg.c **** 			{0xC0u, 0x0Eu},
 898:Generated_Source\PSoC4/cyfitter_cfg.c **** 			{0xC2u, 0x13u},
 899:Generated_Source\PSoC4/cyfitter_cfg.c **** 			{0xC4u, 0xB6u},
 900:Generated_Source\PSoC4/cyfitter_cfg.c **** 			{0xCAu, 0x46u},
 901:Generated_Source\PSoC4/cyfitter_cfg.c **** 			{0xCCu, 0x7Eu},
 902:Generated_Source\PSoC4/cyfitter_cfg.c **** 			{0xCEu, 0x7Eu},
 903:Generated_Source\PSoC4/cyfitter_cfg.c **** 			{0xD6u, 0x70u},
 904:Generated_Source\PSoC4/cyfitter_cfg.c **** 			{0xD8u, 0x80u},
 905:Generated_Source\PSoC4/cyfitter_cfg.c **** 			{0xE4u, 0x80u},
 906:Generated_Source\PSoC4/cyfitter_cfg.c **** 			{0xEAu, 0x04u},
 907:Generated_Source\PSoC4/cyfitter_cfg.c **** 			{0x5Fu, 0x08u},
 908:Generated_Source\PSoC4/cyfitter_cfg.c **** 			{0x68u, 0x04u},
 909:Generated_Source\PSoC4/cyfitter_cfg.c **** 			{0x6Fu, 0x02u},
 910:Generated_Source\PSoC4/cyfitter_cfg.c **** 			{0x70u, 0x10u},
 911:Generated_Source\PSoC4/cyfitter_cfg.c **** 			{0x80u, 0x10u},
 912:Generated_Source\PSoC4/cyfitter_cfg.c **** 			{0x84u, 0x04u},
 913:Generated_Source\PSoC4/cyfitter_cfg.c **** 			{0xD6u, 0x80u},
 914:Generated_Source\PSoC4/cyfitter_cfg.c **** 			{0xDAu, 0xC0u},
 915:Generated_Source\PSoC4/cyfitter_cfg.c **** 			{0xDCu, 0x20u},
 916:Generated_Source\PSoC4/cyfitter_cfg.c **** 			{0xE2u, 0x20u},
 917:Generated_Source\PSoC4/cyfitter_cfg.c **** 			{0xE6u, 0x40u},
 918:Generated_Source\PSoC4/cyfitter_cfg.c **** 			{0x01u, 0x20u},
 919:Generated_Source\PSoC4/cyfitter_cfg.c **** 			{0x07u, 0x02u},
 920:Generated_Source\PSoC4/cyfitter_cfg.c **** 			{0x0Cu, 0x02u},
 921:Generated_Source\PSoC4/cyfitter_cfg.c **** 			{0x8Bu, 0x02u},
 922:Generated_Source\PSoC4/cyfitter_cfg.c **** 			{0x9Fu, 0x08u},
 923:Generated_Source\PSoC4/cyfitter_cfg.c **** 			{0xA7u, 0x02u},
 924:Generated_Source\PSoC4/cyfitter_cfg.c **** 			{0xC0u, 0xC0u},
 925:Generated_Source\PSoC4/cyfitter_cfg.c **** 			{0xC2u, 0x20u},
 926:Generated_Source\PSoC4/cyfitter_cfg.c **** 			{0x13u, 0x08u},
 927:Generated_Source\PSoC4/cyfitter_cfg.c **** 			{0x9Fu, 0x08u},
 928:Generated_Source\PSoC4/cyfitter_cfg.c **** 			{0xA7u, 0x02u},
 929:Generated_Source\PSoC4/cyfitter_cfg.c **** 			{0xA8u, 0x02u},
 930:Generated_Source\PSoC4/cyfitter_cfg.c **** 			{0xA9u, 0x20u},
 931:Generated_Source\PSoC4/cyfitter_cfg.c **** 			{0xC4u, 0x10u},
 932:Generated_Source\PSoC4/cyfitter_cfg.c **** 			{0xE8u, 0x20u},
 933:Generated_Source\PSoC4/cyfitter_cfg.c **** 			{0xECu, 0x80u},
 934:Generated_Source\PSoC4/cyfitter_cfg.c **** 			{0x00u, 0x20u},
 935:Generated_Source\PSoC4/cyfitter_cfg.c **** 			{0x03u, 0x20u},
 936:Generated_Source\PSoC4/cyfitter_cfg.c **** 			{0x0Cu, 0x10u},
 937:Generated_Source\PSoC4/cyfitter_cfg.c **** 			{0x84u, 0x10u},
 938:Generated_Source\PSoC4/cyfitter_cfg.c **** 			{0x87u, 0x22u},
 939:Generated_Source\PSoC4/cyfitter_cfg.c **** 			{0x88u, 0x10u},
ARM GAS  C:\Users\kratz\AppData\Local\Temp\cc1LLP2W.s 			page 25


 940:Generated_Source\PSoC4/cyfitter_cfg.c **** 			{0xA7u, 0x02u},
 941:Generated_Source\PSoC4/cyfitter_cfg.c **** 			{0xC0u, 0x50u},
 942:Generated_Source\PSoC4/cyfitter_cfg.c **** 			{0xC2u, 0x80u},
 943:Generated_Source\PSoC4/cyfitter_cfg.c **** 			{0xE2u, 0x10u},
 944:Generated_Source\PSoC4/cyfitter_cfg.c **** 			{0xE4u, 0x50u},
 945:Generated_Source\PSoC4/cyfitter_cfg.c **** 			{0x09u, 0x02u},
 946:Generated_Source\PSoC4/cyfitter_cfg.c **** 			{0xC2u, 0x08u},
 947:Generated_Source\PSoC4/cyfitter_cfg.c **** 			{0x08u, 0x80u},
 948:Generated_Source\PSoC4/cyfitter_cfg.c **** 			{0x0Cu, 0x80u},
 949:Generated_Source\PSoC4/cyfitter_cfg.c **** 			{0xA1u, 0x02u},
 950:Generated_Source\PSoC4/cyfitter_cfg.c **** 			{0xC2u, 0x03u},
 951:Generated_Source\PSoC4/cyfitter_cfg.c **** 			{0xA8u, 0x80u},
 952:Generated_Source\PSoC4/cyfitter_cfg.c **** 			{0xB1u, 0x02u},
 953:Generated_Source\PSoC4/cyfitter_cfg.c **** 			{0xB4u, 0x80u},
 954:Generated_Source\PSoC4/cyfitter_cfg.c **** 			{0xEAu, 0x08u},
 955:Generated_Source\PSoC4/cyfitter_cfg.c **** 			{0xEEu, 0x04u},
 956:Generated_Source\PSoC4/cyfitter_cfg.c **** 			{0x01u, 0x0Au},
 957:Generated_Source\PSoC4/cyfitter_cfg.c **** 			{0x10u, 0x02u},
 958:Generated_Source\PSoC4/cyfitter_cfg.c **** 			{0x12u, 0x0Au},
 959:Generated_Source\PSoC4/cyfitter_cfg.c **** 		};
 960:Generated_Source\PSoC4/cyfitter_cfg.c **** 
 961:Generated_Source\PSoC4/cyfitter_cfg.c **** 
 962:Generated_Source\PSoC4/cyfitter_cfg.c **** 
 963:Generated_Source\PSoC4/cyfitter_cfg.c **** 		CYPACKED typedef struct {
 964:Generated_Source\PSoC4/cyfitter_cfg.c **** 			void CYFAR *address;
 965:Generated_Source\PSoC4/cyfitter_cfg.c **** 			uint16 size;
 966:Generated_Source\PSoC4/cyfitter_cfg.c **** 		} CYPACKED_ATTR cfg_memset_t;
 967:Generated_Source\PSoC4/cyfitter_cfg.c **** 
 968:Generated_Source\PSoC4/cyfitter_cfg.c **** 		static const cfg_memset_t CYCODE cfg_memset_list[] = {
 969:Generated_Source\PSoC4/cyfitter_cfg.c **** 			/* address, size */
 970:Generated_Source\PSoC4/cyfitter_cfg.c **** 			{(void CYFAR *)(CYDEV_UDB_P0_U0_BASE), 2048u},
 971:Generated_Source\PSoC4/cyfitter_cfg.c **** 			{(void CYFAR *)(CYDEV_UDB_DSI0_BASE), 2048u},
 972:Generated_Source\PSoC4/cyfitter_cfg.c **** 		};
 973:Generated_Source\PSoC4/cyfitter_cfg.c **** 
 974:Generated_Source\PSoC4/cyfitter_cfg.c **** 		uint8 CYDATA i;
 975:Generated_Source\PSoC4/cyfitter_cfg.c **** 
 976:Generated_Source\PSoC4/cyfitter_cfg.c **** 		/* Zero out critical memory blocks before beginning configuration */
 977:Generated_Source\PSoC4/cyfitter_cfg.c **** 		for (i = 0u; i < (sizeof(cfg_memset_list)/sizeof(cfg_memset_list[0])); i++)
 416              		.loc 1 977 0
 417 0122 0024     		movs	r4, #0
 418 0124 0FE0     		b	.L19
 419              	.LVL28:
 420              	.L20:
 421              	.LBB4:
 978:Generated_Source\PSoC4/cyfitter_cfg.c **** 		{
 979:Generated_Source\PSoC4/cyfitter_cfg.c **** 			const cfg_memset_t CYCODE * CYDATA ms = &cfg_memset_list[i];
 980:Generated_Source\PSoC4/cyfitter_cfg.c **** 			CYMEMZERO(ms->address, (size_t)(uint32)(ms->size));
 422              		.loc 1 980 0 discriminator 3
 423 0126 4148     		ldr	r0, .L21+4
 424 0128 6200     		lsls	r2, r4, #1
 425 012a 1319     		adds	r3, r2, r4
 426 012c 5900     		lsls	r1, r3, #1
 427 012e 0B00     		movs	r3, r1
 428 0130 4118     		adds	r1, r0, r1
 429 0132 8988     		ldrh	r1, [r1, #4]
 430 0134 1A5A     		ldrh	r2, [r3, r0]
 431 0136 C318     		adds	r3, r0, r3
ARM GAS  C:\Users\kratz\AppData\Local\Temp\cc1LLP2W.s 			page 26


 432 0138 5888     		ldrh	r0, [r3, #2]
 433 013a 0004     		lsls	r0, r0, #16
 434 013c 1043     		orrs	r0, r2
 435 013e FFF7FEFF 		bl	CYMEMZERO
 436              	.LVL29:
 437              	.LBE4:
 977:Generated_Source\PSoC4/cyfitter_cfg.c **** 		{
 438              		.loc 1 977 0 discriminator 3
 439 0142 0134     		adds	r4, r4, #1
 440              	.LVL30:
 441 0144 E4B2     		uxtb	r4, r4
 442              	.LVL31:
 443              	.L19:
 977:Generated_Source\PSoC4/cyfitter_cfg.c **** 		{
 444              		.loc 1 977 0 is_stmt 0 discriminator 1
 445 0146 012C     		cmp	r4, #1
 446 0148 EDD9     		bls	.L20
 981:Generated_Source\PSoC4/cyfitter_cfg.c **** 		}
 982:Generated_Source\PSoC4/cyfitter_cfg.c **** 
 983:Generated_Source\PSoC4/cyfitter_cfg.c **** 		cfg_write_bytes32(cy_cfg_addr_table, cy_cfg_data_table);
 447              		.loc 1 983 0 is_stmt 1
 448 014a 3849     		ldr	r1, .L21+4
 449 014c 0C31     		adds	r1, r1, #12
 450 014e 3848     		ldr	r0, .L21+8
 451 0150 1830     		adds	r0, r0, #24
 452 0152 FFF7FEFF 		bl	cfg_write_bytes32
 453              	.LVL32:
 984:Generated_Source\PSoC4/cyfitter_cfg.c **** 
 985:Generated_Source\PSoC4/cyfitter_cfg.c **** 		/* HSIOM Starting address: CYDEV_HSIOM_BASE */
 986:Generated_Source\PSoC4/cyfitter_cfg.c **** 		CY_SET_REG32((void *)(CYREG_HSIOM_PORT_SEL1), 0x00000099u);
 454              		.loc 1 986 0
 455 0156 9922     		movs	r2, #153
 456 0158 364B     		ldr	r3, .L21+12
 457 015a 1A60     		str	r2, [r3]
 987:Generated_Source\PSoC4/cyfitter_cfg.c **** 		CY_SET_REG32((void *)(CYREG_HSIOM_PORT_SEL3), 0x0000EE00u);
 458              		.loc 1 987 0
 459 015c EE22     		movs	r2, #238
 460 015e 1202     		lsls	r2, r2, #8
 461 0160 354B     		ldr	r3, .L21+16
 462 0162 1A60     		str	r2, [r3]
 988:Generated_Source\PSoC4/cyfitter_cfg.c **** 		CY_SET_REG32((void *)(CYREG_HSIOM_PORT_SEL4), 0x000000AAu);
 463              		.loc 1 988 0
 464 0164 AA22     		movs	r2, #170
 465 0166 354B     		ldr	r3, .L21+20
 466 0168 1A60     		str	r2, [r3]
 989:Generated_Source\PSoC4/cyfitter_cfg.c **** 		CY_SET_REG32((void *)(CYREG_HSIOM_PORT_SEL5), 0x03000000u);
 467              		.loc 1 989 0
 468 016a C022     		movs	r2, #192
 469 016c 9204     		lsls	r2, r2, #18
 470 016e 344B     		ldr	r3, .L21+24
 471 0170 1A60     		str	r2, [r3]
 990:Generated_Source\PSoC4/cyfitter_cfg.c **** 
 991:Generated_Source\PSoC4/cyfitter_cfg.c **** 		/* UDB_PA_0 Starting address: CYDEV_UDB_PA0_BASE */
 992:Generated_Source\PSoC4/cyfitter_cfg.c **** 		CY_SET_REG32((void *)(CYDEV_UDB_PA0_BASE), 0x00990000u);
 472              		.loc 1 992 0
 473 0172 9923     		movs	r3, #153
 474 0174 1B04     		lsls	r3, r3, #16
ARM GAS  C:\Users\kratz\AppData\Local\Temp\cc1LLP2W.s 			page 27


 475 0176 334A     		ldr	r2, .L21+28
 476 0178 1360     		str	r3, [r2]
 993:Generated_Source\PSoC4/cyfitter_cfg.c **** 		CY_SET_REG32((void *)(CYREG_UDB_PA0_CFG8), 0x10000000u);
 477              		.loc 1 993 0
 478 017a 8021     		movs	r1, #128
 479 017c 4905     		lsls	r1, r1, #21
 480 017e 324A     		ldr	r2, .L21+32
 481 0180 1160     		str	r1, [r2]
 994:Generated_Source\PSoC4/cyfitter_cfg.c **** 
 995:Generated_Source\PSoC4/cyfitter_cfg.c **** 		/* UDB_PA_1 Starting address: CYDEV_UDB_PA1_BASE */
 996:Generated_Source\PSoC4/cyfitter_cfg.c **** 		CY_SET_REG32((void *)(CYDEV_UDB_PA1_BASE), 0x00990000u);
 482              		.loc 1 996 0
 483 0182 324A     		ldr	r2, .L21+36
 484 0184 1360     		str	r3, [r2]
 997:Generated_Source\PSoC4/cyfitter_cfg.c **** 
 998:Generated_Source\PSoC4/cyfitter_cfg.c **** 		/* UDB_PA_2 Starting address: CYDEV_UDB_PA2_BASE */
 999:Generated_Source\PSoC4/cyfitter_cfg.c **** 		CY_SET_REG32((void *)(CYDEV_UDB_PA2_BASE), 0x00990000u);
 485              		.loc 1 999 0
 486 0186 324A     		ldr	r2, .L21+40
 487 0188 1360     		str	r3, [r2]
1000:Generated_Source\PSoC4/cyfitter_cfg.c **** 
1001:Generated_Source\PSoC4/cyfitter_cfg.c **** 		/* UDB_PA_3 Starting address: CYDEV_UDB_PA3_BASE */
1002:Generated_Source\PSoC4/cyfitter_cfg.c **** 		CY_SET_REG32((void *)(CYDEV_UDB_PA3_BASE), 0x00990000u);
 488              		.loc 1 1002 0
 489 018a 324A     		ldr	r2, .L21+44
 490 018c 1360     		str	r3, [r2]
1003:Generated_Source\PSoC4/cyfitter_cfg.c **** 
1004:Generated_Source\PSoC4/cyfitter_cfg.c **** 		/* UDB_PA_5 Starting address: CYDEV_UDB_PA5_BASE */
1005:Generated_Source\PSoC4/cyfitter_cfg.c **** 		CY_SET_REG32((void *)(CYDEV_UDB_PA5_BASE), 0x00990000u);
 491              		.loc 1 1005 0
 492 018e 324A     		ldr	r2, .L21+48
 493 0190 1360     		str	r3, [r2]
1006:Generated_Source\PSoC4/cyfitter_cfg.c **** 
1007:Generated_Source\PSoC4/cyfitter_cfg.c **** 		/* UDB_PA_6 Starting address: CYDEV_UDB_PA6_BASE */
1008:Generated_Source\PSoC4/cyfitter_cfg.c **** 		CY_SET_REG32((void *)(CYDEV_UDB_PA6_BASE), 0x00990000u);
 494              		.loc 1 1008 0
 495 0192 324A     		ldr	r2, .L21+52
 496 0194 1360     		str	r3, [r2]
1009:Generated_Source\PSoC4/cyfitter_cfg.c **** 
1010:Generated_Source\PSoC4/cyfitter_cfg.c **** 		/* UDB_PA_7 Starting address: CYDEV_UDB_PA7_BASE */
1011:Generated_Source\PSoC4/cyfitter_cfg.c **** 		CY_SET_REG32((void *)(CYDEV_UDB_PA7_BASE), 0x00990000u);
 497              		.loc 1 1011 0
 498 0196 324A     		ldr	r2, .L21+56
 499 0198 1360     		str	r3, [r2]
1012:Generated_Source\PSoC4/cyfitter_cfg.c **** 
1013:Generated_Source\PSoC4/cyfitter_cfg.c **** 		/* UDB_P0_U1_CFG24 Starting address: CYDEV_UDB_P0_U1_CFG24 */
1014:Generated_Source\PSoC4/cyfitter_cfg.c **** 		CY_SET_REG32((void *)(CYREG_UDB_P0_U1_CFG24), 0x44040404u);
 500              		.loc 1 1014 0
 501 019a 324A     		ldr	r2, .L21+60
 502 019c 324B     		ldr	r3, .L21+64
 503 019e 1A60     		str	r2, [r3]
1015:Generated_Source\PSoC4/cyfitter_cfg.c **** 
1016:Generated_Source\PSoC4/cyfitter_cfg.c **** 		/* INT_SELECT Starting address: CYDEV_CPUSS_INT_SEL */
1017:Generated_Source\PSoC4/cyfitter_cfg.c **** 		CY_SET_REG32((void *)(CYREG_CPUSS_INT_SEL), 0x00000007u);
 504              		.loc 1 1017 0
 505 01a0 0723     		movs	r3, #7
 506 01a2 324A     		ldr	r2, .L21+68
ARM GAS  C:\Users\kratz\AppData\Local\Temp\cc1LLP2W.s 			page 28


 507 01a4 1360     		str	r3, [r2]
1018:Generated_Source\PSoC4/cyfitter_cfg.c **** 
1019:Generated_Source\PSoC4/cyfitter_cfg.c **** 		/* INT_CONFIG Starting address: CYDEV_UDB_INT_CFG */
1020:Generated_Source\PSoC4/cyfitter_cfg.c **** 		CY_SET_REG32((void *)(CYREG_UDB_INT_CFG), 0x00000007u);
 508              		.loc 1 1020 0
 509 01a6 324A     		ldr	r2, .L21+72
 510 01a8 1360     		str	r3, [r2]
1021:Generated_Source\PSoC4/cyfitter_cfg.c **** 
1022:Generated_Source\PSoC4/cyfitter_cfg.c **** 		/* Enable UDB array and digital routing */
1023:Generated_Source\PSoC4/cyfitter_cfg.c **** 		CY_SET_XTND_REG8((void *)CYREG_UDB_UDB_WAIT_CFG, (uint8)((CY_GET_XTND_REG8((void *)CYREG_UDB_UDB_
 511              		.loc 1 1023 0
 512 01aa 3249     		ldr	r1, .L21+76
 513 01ac 0B78     		ldrb	r3, [r1]
 514 01ae 3C22     		movs	r2, #60
 515 01b0 9343     		bics	r3, r2
 516 01b2 1422     		movs	r2, #20
 517 01b4 1343     		orrs	r3, r2
 518 01b6 DBB2     		uxtb	r3, r3
 519 01b8 0B70     		strb	r3, [r1]
1024:Generated_Source\PSoC4/cyfitter_cfg.c **** 		CY_SET_XTND_REG8((void *)CYREG_UDB_UDB_BANK_CTL, (uint8)(CY_GET_XTND_REG8((void *)CYREG_UDB_UDB_B
 520              		.loc 1 1024 0
 521 01ba 2F4A     		ldr	r2, .L21+80
 522 01bc 1178     		ldrb	r1, [r2]
 523 01be 1623     		movs	r3, #22
 524 01c0 0B43     		orrs	r3, r1
 525 01c2 DBB2     		uxtb	r3, r3
 526 01c4 1370     		strb	r3, [r2]
 527              	.LBE3:
1025:Generated_Source\PSoC4/cyfitter_cfg.c **** 	}
1026:Generated_Source\PSoC4/cyfitter_cfg.c **** 
1027:Generated_Source\PSoC4/cyfitter_cfg.c **** 	/* Perform second pass device configuration. These items must be configured in specific order afte
1028:Generated_Source\PSoC4/cyfitter_cfg.c **** 	/* IOPINS0_10 Starting address: CYDEV_GPIO_PRT10_BASE */
1029:Generated_Source\PSoC4/cyfitter_cfg.c **** 	CY_SET_REG32((void *)(CYDEV_GPIO_PRT10_BASE), 0x00000085u);
 528              		.loc 1 1029 0
 529 01c6 8522     		movs	r2, #133
 530 01c8 2C4B     		ldr	r3, .L21+84
 531 01ca 1A60     		str	r2, [r3]
1030:Generated_Source\PSoC4/cyfitter_cfg.c **** 	CY_SET_REG32((void *)(CYREG_GPIO_PRT10_PC), 0x00400082u);
 532              		.loc 1 1030 0
 533 01cc 2C4A     		ldr	r2, .L21+88
 534 01ce 2D4B     		ldr	r3, .L21+92
 535 01d0 1A60     		str	r2, [r3]
1031:Generated_Source\PSoC4/cyfitter_cfg.c **** 
1032:Generated_Source\PSoC4/cyfitter_cfg.c **** 	/* IOPINS0_11 Starting address: CYDEV_GPIO_PRT11_BASE */
1033:Generated_Source\PSoC4/cyfitter_cfg.c **** 	CY_SET_REG32((void *)(CYREG_GPIO_PRT11_PC), 0x00240000u);
 536              		.loc 1 1033 0
 537 01d2 9022     		movs	r2, #144
 538 01d4 9203     		lsls	r2, r2, #14
 539 01d6 2C4B     		ldr	r3, .L21+96
 540 01d8 1A60     		str	r2, [r3]
1034:Generated_Source\PSoC4/cyfitter_cfg.c **** 
1035:Generated_Source\PSoC4/cyfitter_cfg.c **** 	/* IOPINS0_1 Starting address: CYDEV_GPIO_PRT1_BASE */
1036:Generated_Source\PSoC4/cyfitter_cfg.c **** 	CY_SET_REG32((void *)(CYDEV_GPIO_PRT1_BASE), 0x000000AEu);
 541              		.loc 1 1036 0
 542 01da AE22     		movs	r2, #174
 543 01dc 2B4B     		ldr	r3, .L21+100
 544 01de 1A60     		str	r2, [r3]
ARM GAS  C:\Users\kratz\AppData\Local\Temp\cc1LLP2W.s 			page 29


1037:Generated_Source\PSoC4/cyfitter_cfg.c **** 	CY_SET_REG32((void *)(CYREG_GPIO_PRT1_PC), 0x004564B1u);
 545              		.loc 1 1037 0
 546 01e0 2B4A     		ldr	r2, .L21+104
 547 01e2 2C4B     		ldr	r3, .L21+108
 548 01e4 1A60     		str	r2, [r3]
1038:Generated_Source\PSoC4/cyfitter_cfg.c **** 	CY_SET_REG32((void *)(CYREG_GPIO_PRT1_PC2), 0x00000002u);
 549              		.loc 1 1038 0
 550 01e6 0222     		movs	r2, #2
 551 01e8 2B4B     		ldr	r3, .L21+112
 552 01ea 1A60     		str	r2, [r3]
1039:Generated_Source\PSoC4/cyfitter_cfg.c **** 
1040:Generated_Source\PSoC4/cyfitter_cfg.c **** 	/* IOPINS0_2 Starting address: CYDEV_GPIO_PRT2_BASE */
1041:Generated_Source\PSoC4/cyfitter_cfg.c **** 	CY_SET_REG32((void *)(CYDEV_GPIO_PRT2_BASE), 0x00000010u);
 553              		.loc 1 1041 0
 554 01ec 1023     		movs	r3, #16
 555 01ee 2B4A     		ldr	r2, .L21+116
 556 01f0 1360     		str	r3, [r2]
1042:Generated_Source\PSoC4/cyfitter_cfg.c **** 	CY_SET_REG32((void *)(CYREG_GPIO_PRT2_PC), 0x00188DB6u);
 557              		.loc 1 1042 0
 558 01f2 2B49     		ldr	r1, .L21+120
 559 01f4 2B4A     		ldr	r2, .L21+124
 560 01f6 1160     		str	r1, [r2]
1043:Generated_Source\PSoC4/cyfitter_cfg.c **** 	CY_SET_REG32((void *)(CYREG_GPIO_PRT2_PC2), 0x00000010u);
 561              		.loc 1 1043 0
 562 01f8 2B4A     		ldr	r2, .L21+128
 563 01fa 1360     		str	r3, [r2]
1044:Generated_Source\PSoC4/cyfitter_cfg.c **** 
1045:Generated_Source\PSoC4/cyfitter_cfg.c **** 	/* IOPINS0_3 Starting address: CYDEV_GPIO_PRT3_BASE */
1046:Generated_Source\PSoC4/cyfitter_cfg.c **** 	CY_SET_REG32((void *)(CYREG_GPIO_PRT3_PC), 0x00000D80u);
 564              		.loc 1 1046 0
 565 01fc D822     		movs	r2, #216
 566 01fe 1201     		lsls	r2, r2, #4
 567 0200 2A4B     		ldr	r3, .L21+132
 568 0202 1A60     		str	r2, [r3]
1047:Generated_Source\PSoC4/cyfitter_cfg.c **** 
1048:Generated_Source\PSoC4/cyfitter_cfg.c **** 	/* IOPINS0_4 Starting address: CYDEV_GPIO_PRT4_BASE */
1049:Generated_Source\PSoC4/cyfitter_cfg.c **** 	CY_SET_REG32((void *)(CYDEV_GPIO_PRT4_BASE), 0x00000012u);
 569              		.loc 1 1049 0
 570 0204 1222     		movs	r2, #18
 571 0206 2A4B     		ldr	r3, .L21+136
 572 0208 1A60     		str	r2, [r3]
1050:Generated_Source\PSoC4/cyfitter_cfg.c **** 	CY_SET_REG32((void *)(CYREG_GPIO_PRT4_PC), 0x00002031u);
 573              		.loc 1 1050 0
 574 020a 2A4A     		ldr	r2, .L21+140
 575 020c 2A4B     		ldr	r3, .L21+144
 576 020e 1A60     		str	r2, [r3]
1051:Generated_Source\PSoC4/cyfitter_cfg.c **** 
1052:Generated_Source\PSoC4/cyfitter_cfg.c **** 	/* IOPINS0_5 Starting address: CYDEV_GPIO_PRT5_BASE */
1053:Generated_Source\PSoC4/cyfitter_cfg.c **** 	CY_SET_REG32((void *)(CYDEV_GPIO_PRT5_BASE), 0x00000040u);
 577              		.loc 1 1053 0
 578 0210 4022     		movs	r2, #64
 579 0212 2A4B     		ldr	r3, .L21+148
 580 0214 1A60     		str	r2, [r3]
1054:Generated_Source\PSoC4/cyfitter_cfg.c **** 	CY_SET_REG32((void *)(CYREG_GPIO_PRT5_PC), 0x00180000u);
 581              		.loc 1 1054 0
 582 0216 C022     		movs	r2, #192
 583 0218 5203     		lsls	r2, r2, #13
ARM GAS  C:\Users\kratz\AppData\Local\Temp\cc1LLP2W.s 			page 30


 584 021a 294B     		ldr	r3, .L21+152
 585 021c 1A60     		str	r2, [r3]
1055:Generated_Source\PSoC4/cyfitter_cfg.c **** 
1056:Generated_Source\PSoC4/cyfitter_cfg.c **** 
1057:Generated_Source\PSoC4/cyfitter_cfg.c **** 	/* Setup clocks based on selections from Clock DWR */
1058:Generated_Source\PSoC4/cyfitter_cfg.c **** 	ClockSetup();
 586              		.loc 1 1058 0
 587 021e FFF7EFFE 		bl	ClockSetup
 588              	.LVL33:
1059:Generated_Source\PSoC4/cyfitter_cfg.c **** 
1060:Generated_Source\PSoC4/cyfitter_cfg.c **** 	/* Perform basic analog initialization to defaults */
1061:Generated_Source\PSoC4/cyfitter_cfg.c **** 	AnalogSetDefault();
 589              		.loc 1 1061 0
 590 0222 FFF7FEFF 		bl	AnalogSetDefault
 591              	.LVL34:
1062:Generated_Source\PSoC4/cyfitter_cfg.c **** 
1063:Generated_Source\PSoC4/cyfitter_cfg.c **** }
 592              		.loc 1 1063 0
 593              		@ sp needed
 594              	.LVL35:
 595 0226 10BD     		pop	{r4, pc}
 596              	.L22:
 597              		.align	2
 598              	.L21:
 599 0228 1C700F40 		.word	1074753564
 600 022c 00000000 		.word	.LANCHOR0
 601 0230 80040000 		.word	.LANCHOR1
 602 0234 00010240 		.word	1073873152
 603 0238 00030240 		.word	1073873664
 604 023c 00040240 		.word	1073873920
 605 0240 00050240 		.word	1073874176
 606 0244 00500F40 		.word	1074745344
 607 0248 08500F40 		.word	1074745352
 608 024c 10500F40 		.word	1074745360
 609 0250 20500F40 		.word	1074745376
 610 0254 30500F40 		.word	1074745392
 611 0258 50500F40 		.word	1074745424
 612 025c 60500F40 		.word	1074745440
 613 0260 70500F40 		.word	1074745456
 614 0264 04040444 		.word	1141113860
 615 0268 D8300F40 		.word	1074737368
 616 026c 20001040 		.word	1074790432
 617 0270 00800F40 		.word	1074757632
 618 0274 01700F40 		.word	1074753537
 619 0278 00700F40 		.word	1074753536
 620 027c 000A0440 		.word	1074006528
 621 0280 82004000 		.word	4194434
 622 0284 080A0440 		.word	1074006536
 623 0288 080B0440 		.word	1074006792
 624 028c 00010440 		.word	1074004224
 625 0290 B1644500 		.word	4547761
 626 0294 08010440 		.word	1074004232
 627 0298 18010440 		.word	1074004248
 628 029c 00020440 		.word	1074004480
 629 02a0 B68D1800 		.word	1609142
 630 02a4 08020440 		.word	1074004488
 631 02a8 18020440 		.word	1074004504
ARM GAS  C:\Users\kratz\AppData\Local\Temp\cc1LLP2W.s 			page 31


 632 02ac 08030440 		.word	1074004744
 633 02b0 00040440 		.word	1074004992
 634 02b4 31200000 		.word	8241
 635 02b8 08040440 		.word	1074005000
 636 02bc 00050440 		.word	1074005248
 637 02c0 08050440 		.word	1074005256
 638              		.cfi_endproc
 639              	.LFE8:
 640              		.size	cyfitter_cfg, .-cyfitter_cfg
 641              		.section	.rodata
 642              		.align	2
 643              		.set	.LANCHOR0,. + 0
 644              		.set	.LANCHOR1,. + 1152
 645              		.type	cfg_memset_list.4977, %object
 646              		.size	cfg_memset_list.4977, 12
 647              	cfg_memset_list.4977:
 648 0000 00300F40 		.word	1074737152
 649 0004 0008     		.short	2048
 650 0006 00400F40 		.4byte	1074741248
 651 000a 0008     		.short	2048
 652              		.type	cy_cfg_data_table.4972, %object
 653              		.size	cy_cfg_data_table.4972, 1162
 654              	cy_cfg_data_table.4972:
 655 000c 81       		.byte	-127
 656 000d 6F       		.byte	111
 657 000e 82       		.byte	-126
 658 000f 0D       		.byte	13
 659 0010 83       		.byte	-125
 660 0011 0F       		.byte	15
 661 0012 86       		.byte	-122
 662 0013 07       		.byte	7
 663 0014 04       		.byte	4
 664 0015 0C       		.byte	12
 665 0016 06       		.byte	6
 666 0017 02       		.byte	2
 667 0018 16       		.byte	22
 668 0019 0F       		.byte	15
 669 001a 18       		.byte	24
 670 001b 08       		.byte	8
 671 001c 1A       		.byte	26
 672 001d 01       		.byte	1
 673 001e 1C       		.byte	28
 674 001f 0C       		.byte	12
 675 0020 1E       		.byte	30
 676 0021 01       		.byte	1
 677 0022 20       		.byte	32
 678 0023 0B       		.byte	11
 679 0024 22       		.byte	34
 680 0025 04       		.byte	4
 681 0026 28       		.byte	40
 682 0027 07       		.byte	7
 683 0028 34       		.byte	52
 684 0029 0F       		.byte	15
 685 002a 40       		.byte	64
 686 002b 54       		.byte	84
 687 002c 49       		.byte	73
 688 002d FF       		.byte	-1
ARM GAS  C:\Users\kratz\AppData\Local\Temp\cc1LLP2W.s 			page 32


 689 002e 4A       		.byte	74
 690 002f FF       		.byte	-1
 691 0030 4B       		.byte	75
 692 0031 FF       		.byte	-1
 693 0032 4F       		.byte	79
 694 0033 01       		.byte	1
 695 0034 50       		.byte	80
 696 0035 18       		.byte	24
 697 0036 58       		.byte	88
 698 0037 04       		.byte	4
 699 0038 5A       		.byte	90
 700 0039 04       		.byte	4
 701 003a 5C       		.byte	92
 702 003b 01       		.byte	1
 703 003c 5D       		.byte	93
 704 003d 01       		.byte	1
 705 003e 5F       		.byte	95
 706 003f 01       		.byte	1
 707 0040 60       		.byte	96
 708 0041 40       		.byte	64
 709 0042 62       		.byte	98
 710 0043 40       		.byte	64
 711 0044 64       		.byte	100
 712 0045 40       		.byte	64
 713 0046 65       		.byte	101
 714 0047 40       		.byte	64
 715 0048 66       		.byte	102
 716 0049 80       		.byte	-128
 717 004a 68       		.byte	104
 718 004b 80       		.byte	-128
 719 004c 6A       		.byte	106
 720 004d 80       		.byte	-128
 721 004e 6C       		.byte	108
 722 004f 80       		.byte	-128
 723 0050 6E       		.byte	110
 724 0051 80       		.byte	-128
 725 0052 87       		.byte	-121
 726 0053 1E       		.byte	30
 727 0054 89       		.byte	-119
 728 0055 01       		.byte	1
 729 0056 8D       		.byte	-115
 730 0057 18       		.byte	24
 731 0058 8E       		.byte	-114
 732 0059 01       		.byte	1
 733 005a 8F       		.byte	-113
 734 005b 04       		.byte	4
 735 005c 95       		.byte	-107
 736 005d 0E       		.byte	14
 737 005e 98       		.byte	-104
 738 005f 01       		.byte	1
 739 0060 9D       		.byte	-99
 740 0061 16       		.byte	22
 741 0062 9F       		.byte	-97
 742 0063 08       		.byte	8
 743 0064 A3       		.byte	-93
 744 0065 01       		.byte	1
 745 0066 A5       		.byte	-91
ARM GAS  C:\Users\kratz\AppData\Local\Temp\cc1LLP2W.s 			page 33


 746 0067 18       		.byte	24
 747 0068 A7       		.byte	-89
 748 0069 02       		.byte	2
 749 006a A9       		.byte	-87
 750 006b 10       		.byte	16
 751 006c AB       		.byte	-85
 752 006d 02       		.byte	2
 753 006e AE       		.byte	-82
 754 006f 02       		.byte	2
 755 0070 B0       		.byte	-80
 756 0071 01       		.byte	1
 757 0072 B1       		.byte	-79
 758 0073 01       		.byte	1
 759 0074 B2       		.byte	-78
 760 0075 02       		.byte	2
 761 0076 B7       		.byte	-73
 762 0077 1E       		.byte	30
 763 0078 BE       		.byte	-66
 764 0079 01       		.byte	1
 765 007a BF       		.byte	-65
 766 007b 01       		.byte	1
 767 007c C0       		.byte	-64
 768 007d 41       		.byte	65
 769 007e C9       		.byte	-55
 770 007f FF       		.byte	-1
 771 0080 CA       		.byte	-54
 772 0081 FF       		.byte	-1
 773 0082 CB       		.byte	-53
 774 0083 FF       		.byte	-1
 775 0084 CD       		.byte	-51
 776 0085 83       		.byte	-125
 777 0086 CE       		.byte	-50
 778 0087 03       		.byte	3
 779 0088 CF       		.byte	-49
 780 0089 01       		.byte	1
 781 008a D0       		.byte	-48
 782 008b 18       		.byte	24
 783 008c D2       		.byte	-46
 784 008d 80       		.byte	-128
 785 008e D4       		.byte	-44
 786 008f 0F       		.byte	15
 787 0090 D8       		.byte	-40
 788 0091 04       		.byte	4
 789 0092 D9       		.byte	-39
 790 0093 04       		.byte	4
 791 0094 DA       		.byte	-38
 792 0095 04       		.byte	4
 793 0096 DB       		.byte	-37
 794 0097 04       		.byte	4
 795 0098 DC       		.byte	-36
 796 0099 11       		.byte	17
 797 009a DD       		.byte	-35
 798 009b 11       		.byte	17
 799 009c DF       		.byte	-33
 800 009d 05       		.byte	5
 801 009e E0       		.byte	-32
 802 009f 40       		.byte	64
ARM GAS  C:\Users\kratz\AppData\Local\Temp\cc1LLP2W.s 			page 34


 803 00a0 E2       		.byte	-30
 804 00a1 40       		.byte	64
 805 00a2 E4       		.byte	-28
 806 00a3 40       		.byte	64
 807 00a4 E5       		.byte	-27
 808 00a5 40       		.byte	64
 809 00a6 E6       		.byte	-26
 810 00a7 80       		.byte	-128
 811 00a8 E8       		.byte	-24
 812 00a9 80       		.byte	-128
 813 00aa EA       		.byte	-22
 814 00ab 80       		.byte	-128
 815 00ac EC       		.byte	-20
 816 00ad 80       		.byte	-128
 817 00ae EE       		.byte	-18
 818 00af 80       		.byte	-128
 819 00b0 00       		.byte	0
 820 00b1 04       		.byte	4
 821 00b2 04       		.byte	4
 822 00b3 80       		.byte	-128
 823 00b4 08       		.byte	8
 824 00b5 0C       		.byte	12
 825 00b6 09       		.byte	9
 826 00b7 40       		.byte	64
 827 00b8 0B       		.byte	11
 828 00b9 04       		.byte	4
 829 00ba 0D       		.byte	13
 830 00bb 20       		.byte	32
 831 00bc 12       		.byte	18
 832 00bd 88       		.byte	-120
 833 00be 16       		.byte	22
 834 00bf 02       		.byte	2
 835 00c0 18       		.byte	24
 836 00c1 04       		.byte	4
 837 00c2 1A       		.byte	26
 838 00c3 04       		.byte	4
 839 00c4 1B       		.byte	27
 840 00c5 10       		.byte	16
 841 00c6 1E       		.byte	30
 842 00c7 90       		.byte	-112
 843 00c8 24       		.byte	36
 844 00c9 02       		.byte	2
 845 00ca 25       		.byte	37
 846 00cb 40       		.byte	64
 847 00cc 26       		.byte	38
 848 00cd 01       		.byte	1
 849 00ce 2C       		.byte	44
 850 00cf 04       		.byte	4
 851 00d0 2E       		.byte	46
 852 00d1 06       		.byte	6
 853 00d2 2F       		.byte	47
 854 00d3 80       		.byte	-128
 855 00d4 36       		.byte	54
 856 00d5 88       		.byte	-120
 857 00d6 3D       		.byte	61
 858 00d7 80       		.byte	-128
 859 00d8 3E       		.byte	62
ARM GAS  C:\Users\kratz\AppData\Local\Temp\cc1LLP2W.s 			page 35


 860 00d9 10       		.byte	16
 861 00da 3F       		.byte	63
 862 00db 04       		.byte	4
 863 00dc 43       		.byte	67
 864 00dd 02       		.byte	2
 865 00de 46       		.byte	70
 866 00df 41       		.byte	65
 867 00e0 48       		.byte	72
 868 00e1 01       		.byte	1
 869 00e2 5C       		.byte	92
 870 00e3 20       		.byte	32
 871 00e4 5E       		.byte	94
 872 00e5 8A       		.byte	-118
 873 00e6 66       		.byte	102
 874 00e7 28       		.byte	40
 875 00e8 74       		.byte	116
 876 00e9 01       		.byte	1
 877 00ea 76       		.byte	118
 878 00eb 40       		.byte	64
 879 00ec 7E       		.byte	126
 880 00ed 08       		.byte	8
 881 00ee 81       		.byte	-127
 882 00ef 01       		.byte	1
 883 00f0 87       		.byte	-121
 884 00f1 40       		.byte	64
 885 00f2 C0       		.byte	-64
 886 00f3 84       		.byte	-124
 887 00f4 C2       		.byte	-62
 888 00f5 47       		.byte	71
 889 00f6 C4       		.byte	-60
 890 00f7 8A       		.byte	-118
 891 00f8 CA       		.byte	-54
 892 00f9 E0       		.byte	-32
 893 00fa CC       		.byte	-52
 894 00fb 50       		.byte	80
 895 00fc CE       		.byte	-50
 896 00fd 70       		.byte	112
 897 00fe D0       		.byte	-48
 898 00ff 91       		.byte	-111
 899 0100 D2       		.byte	-46
 900 0101 08       		.byte	8
 901 0102 D6       		.byte	-42
 902 0103 F0       		.byte	-16
 903 0104 D8       		.byte	-40
 904 0105 60       		.byte	96
 905 0106 DE       		.byte	-34
 906 0107 20       		.byte	32
 907 0108 03       		.byte	3
 908 0109 01       		.byte	1
 909 010a 04       		.byte	4
 910 010b 02       		.byte	2
 911 010c 05       		.byte	5
 912 010d 04       		.byte	4
 913 010e 0E       		.byte	14
 914 010f 01       		.byte	1
 915 0110 29       		.byte	41
 916 0111 02       		.byte	2
ARM GAS  C:\Users\kratz\AppData\Local\Temp\cc1LLP2W.s 			page 36


 917 0112 2F       		.byte	47
 918 0113 01       		.byte	1
 919 0114 31       		.byte	49
 920 0115 01       		.byte	1
 921 0116 32       		.byte	50
 922 0117 02       		.byte	2
 923 0118 34       		.byte	52
 924 0119 01       		.byte	1
 925 011a 35       		.byte	53
 926 011b 02       		.byte	2
 927 011c 37       		.byte	55
 928 011d 04       		.byte	4
 929 011e 3E       		.byte	62
 930 011f 04       		.byte	4
 931 0120 3F       		.byte	63
 932 0121 51       		.byte	81
 933 0122 40       		.byte	64
 934 0123 41       		.byte	65
 935 0124 45       		.byte	69
 936 0125 EC       		.byte	-20
 937 0126 47       		.byte	71
 938 0127 20       		.byte	32
 939 0128 48       		.byte	72
 940 0129 23       		.byte	35
 941 012a 49       		.byte	73
 942 012b FF       		.byte	-1
 943 012c 4A       		.byte	74
 944 012d FF       		.byte	-1
 945 012e 4B       		.byte	75
 946 012f FF       		.byte	-1
 947 0130 4D       		.byte	77
 948 0131 83       		.byte	-125
 949 0132 4E       		.byte	78
 950 0133 03       		.byte	3
 951 0134 4F       		.byte	79
 952 0135 01       		.byte	1
 953 0136 50       		.byte	80
 954 0137 18       		.byte	24
 955 0138 54       		.byte	84
 956 0139 01       		.byte	1
 957 013a 56       		.byte	86
 958 013b 04       		.byte	4
 959 013c 58       		.byte	88
 960 013d 04       		.byte	4
 961 013e 59       		.byte	89
 962 013f 04       		.byte	4
 963 0140 5A       		.byte	90
 964 0141 04       		.byte	4
 965 0142 5B       		.byte	91
 966 0143 04       		.byte	4
 967 0144 5C       		.byte	92
 968 0145 01       		.byte	1
 969 0146 5D       		.byte	93
 970 0147 11       		.byte	17
 971 0148 5F       		.byte	95
 972 0149 01       		.byte	1
 973 014a 60       		.byte	96
ARM GAS  C:\Users\kratz\AppData\Local\Temp\cc1LLP2W.s 			page 37


 974 014b 40       		.byte	64
 975 014c 62       		.byte	98
 976 014d 40       		.byte	64
 977 014e 64       		.byte	100
 978 014f 40       		.byte	64
 979 0150 65       		.byte	101
 980 0151 40       		.byte	64
 981 0152 66       		.byte	102
 982 0153 80       		.byte	-128
 983 0154 68       		.byte	104
 984 0155 80       		.byte	-128
 985 0156 6A       		.byte	106
 986 0157 80       		.byte	-128
 987 0158 6C       		.byte	108
 988 0159 80       		.byte	-128
 989 015a 6E       		.byte	110
 990 015b 80       		.byte	-128
 991 015c 81       		.byte	-127
 992 015d 14       		.byte	20
 993 015e 83       		.byte	-125
 994 015f 0A       		.byte	10
 995 0160 85       		.byte	-123
 996 0161 0A       		.byte	10
 997 0162 86       		.byte	-122
 998 0163 01       		.byte	1
 999 0164 87       		.byte	-121
 1000 0165 14       		.byte	20
 1001 0166 89       		.byte	-119
 1002 0167 01       		.byte	1
 1003 0168 8A       		.byte	-118
 1004 0169 01       		.byte	1
 1005 016a 8F       		.byte	-113
 1006 016b 01       		.byte	1
 1007 016c 95       		.byte	-107
 1008 016d 0E       		.byte	14
 1009 016e 98       		.byte	-104
 1010 016f 01       		.byte	1
 1011 0170 99       		.byte	-103
 1012 0171 06       		.byte	6
 1013 0172 9B       		.byte	-101
 1014 0173 18       		.byte	24
 1015 0174 9D       		.byte	-99
 1016 0175 1E       		.byte	30
 1017 0176 A5       		.byte	-91
 1018 0177 18       		.byte	24
 1019 0178 A7       		.byte	-89
 1020 0179 06       		.byte	6
 1021 017a A9       		.byte	-87
 1022 017b 01       		.byte	1
 1023 017c B3       		.byte	-77
 1024 017d 01       		.byte	1
 1025 017e B6       		.byte	-74
 1026 017f 01       		.byte	1
 1027 0180 B7       		.byte	-73
 1028 0181 1E       		.byte	30
 1029 0182 BE       		.byte	-66
 1030 0183 40       		.byte	64
ARM GAS  C:\Users\kratz\AppData\Local\Temp\cc1LLP2W.s 			page 38


 1031 0184 BF       		.byte	-65
 1032 0185 04       		.byte	4
 1033 0186 D4       		.byte	-44
 1034 0187 0F       		.byte	15
 1035 0188 D6       		.byte	-42
 1036 0189 04       		.byte	4
 1037 018a D8       		.byte	-40
 1038 018b 04       		.byte	4
 1039 018c D9       		.byte	-39
 1040 018d 04       		.byte	4
 1041 018e DB       		.byte	-37
 1042 018f 04       		.byte	4
 1043 0190 DC       		.byte	-36
 1044 0191 10       		.byte	16
 1045 0192 DD       		.byte	-35
 1046 0193 10       		.byte	16
 1047 0194 DF       		.byte	-33
 1048 0195 01       		.byte	1
 1049 0196 00       		.byte	0
 1050 0197 28       		.byte	40
 1051 0198 04       		.byte	4
 1052 0199 80       		.byte	-128
 1053 019a 07       		.byte	7
 1054 019b 10       		.byte	16
 1055 019c 09       		.byte	9
 1056 019d 20       		.byte	32
 1057 019e 19       		.byte	25
 1058 019f 80       		.byte	-128
 1059 01a0 1D       		.byte	29
 1060 01a1 20       		.byte	32
 1061 01a2 1E       		.byte	30
 1062 01a3 20       		.byte	32
 1063 01a4 1F       		.byte	31
 1064 01a5 10       		.byte	16
 1065 01a6 22       		.byte	34
 1066 01a7 80       		.byte	-128
 1067 01a8 23       		.byte	35
 1068 01a9 20       		.byte	32
 1069 01aa 24       		.byte	36
 1070 01ab 40       		.byte	64
 1071 01ac 27       		.byte	39
 1072 01ad 0A       		.byte	10
 1073 01ae 29       		.byte	41
 1074 01af 20       		.byte	32
 1075 01b0 2B       		.byte	43
 1076 01b1 10       		.byte	16
 1077 01b2 2F       		.byte	47
 1078 01b3 0A       		.byte	10
 1079 01b4 30       		.byte	48
 1080 01b5 04       		.byte	4
 1081 01b6 31       		.byte	49
 1082 01b7 10       		.byte	16
 1083 01b8 32       		.byte	50
 1084 01b9 88       		.byte	-120
 1085 01ba 38       		.byte	56
 1086 01bb 02       		.byte	2
 1087 01bc 3B       		.byte	59
ARM GAS  C:\Users\kratz\AppData\Local\Temp\cc1LLP2W.s 			page 39


 1088 01bd A4       		.byte	-92
 1089 01be 3C       		.byte	60
 1090 01bf 02       		.byte	2
 1091 01c0 3D       		.byte	61
 1092 01c1 04       		.byte	4
 1093 01c2 46       		.byte	70
 1094 01c3 41       		.byte	65
 1095 01c4 4D       		.byte	77
 1096 01c5 09       		.byte	9
 1097 01c6 56       		.byte	86
 1098 01c7 01       		.byte	1
 1099 01c8 57       		.byte	87
 1100 01c9 02       		.byte	2
 1101 01ca 58       		.byte	88
 1102 01cb 06       		.byte	6
 1103 01cc 59       		.byte	89
 1104 01cd 80       		.byte	-128
 1105 01ce 5B       		.byte	91
 1106 01cf 20       		.byte	32
 1107 01d0 5C       		.byte	92
 1108 01d1 40       		.byte	64
 1109 01d2 5D       		.byte	93
 1110 01d3 09       		.byte	9
 1111 01d4 60       		.byte	96
 1112 01d5 02       		.byte	2
 1113 01d6 62       		.byte	98
 1114 01d7 80       		.byte	-128
 1115 01d8 63       		.byte	99
 1116 01d9 40       		.byte	64
 1117 01da 65       		.byte	101
 1118 01db 01       		.byte	1
 1119 01dc 84       		.byte	-124
 1120 01dd 20       		.byte	32
 1121 01de 87       		.byte	-121
 1122 01df 80       		.byte	-128
 1123 01e0 89       		.byte	-119
 1124 01e1 04       		.byte	4
 1125 01e2 90       		.byte	-112
 1126 01e3 02       		.byte	2
 1127 01e4 92       		.byte	-110
 1128 01e5 04       		.byte	4
 1129 01e6 94       		.byte	-108
 1130 01e7 80       		.byte	-128
 1131 01e8 97       		.byte	-105
 1132 01e9 44       		.byte	68
 1133 01ea 9A       		.byte	-102
 1134 01eb 40       		.byte	64
 1135 01ec 9C       		.byte	-100
 1136 01ed 28       		.byte	40
 1137 01ee 9D       		.byte	-99
 1138 01ef 01       		.byte	1
 1139 01f0 9E       		.byte	-98
 1140 01f1 29       		.byte	41
 1141 01f2 A0       		.byte	-96
 1142 01f3 01       		.byte	1
 1143 01f4 A1       		.byte	-95
 1144 01f5 40       		.byte	64
ARM GAS  C:\Users\kratz\AppData\Local\Temp\cc1LLP2W.s 			page 40


 1145 01f6 A3       		.byte	-93
 1146 01f7 10       		.byte	16
 1147 01f8 A5       		.byte	-91
 1148 01f9 20       		.byte	32
 1149 01fa A6       		.byte	-90
 1150 01fb 8C       		.byte	-116
 1151 01fc A7       		.byte	-89
 1152 01fd 82       		.byte	-126
 1153 01fe C0       		.byte	-64
 1154 01ff A6       		.byte	-90
 1155 0200 C2       		.byte	-62
 1156 0201 02       		.byte	2
 1157 0202 CA       		.byte	-54
 1158 0203 36       		.byte	54
 1159 0204 CC       		.byte	-52
 1160 0205 0E       		.byte	14
 1161 0206 CE       		.byte	-50
 1162 0207 CF       		.byte	-49
 1163 0208 D0       		.byte	-48
 1164 0209 90       		.byte	-112
 1165 020a D6       		.byte	-42
 1166 020b DF       		.byte	-33
 1167 020c D8       		.byte	-40
 1168 020d 81       		.byte	-127
 1169 020e E0       		.byte	-32
 1170 020f 20       		.byte	32
 1171 0210 0E       		.byte	14
 1172 0211 01       		.byte	1
 1173 0212 15       		.byte	21
 1174 0213 03       		.byte	3
 1175 0214 1D       		.byte	29
 1176 0215 05       		.byte	5
 1177 0216 21       		.byte	33
 1178 0217 06       		.byte	6
 1179 0218 25       		.byte	37
 1180 0219 06       		.byte	6
 1181 021a 2F       		.byte	47
 1182 021b 08       		.byte	8
 1183 021c 33       		.byte	51
 1184 021d 07       		.byte	7
 1185 021e 34       		.byte	52
 1186 021f 01       		.byte	1
 1187 0220 35       		.byte	53
 1188 0221 08       		.byte	8
 1189 0222 39       		.byte	57
 1190 0223 08       		.byte	8
 1191 0224 40       		.byte	64
 1192 0225 24       		.byte	36
 1193 0226 41       		.byte	65
 1194 0227 06       		.byte	6
 1195 0228 49       		.byte	73
 1196 0229 FF       		.byte	-1
 1197 022a 4A       		.byte	74
 1198 022b FF       		.byte	-1
 1199 022c 4B       		.byte	75
 1200 022d FF       		.byte	-1
 1201 022e 4D       		.byte	77
ARM GAS  C:\Users\kratz\AppData\Local\Temp\cc1LLP2W.s 			page 41


 1202 022f A0       		.byte	-96
 1203 0230 4F       		.byte	79
 1204 0231 01       		.byte	1
 1205 0232 50       		.byte	80
 1206 0233 18       		.byte	24
 1207 0234 58       		.byte	88
 1208 0235 04       		.byte	4
 1209 0236 59       		.byte	89
 1210 0237 04       		.byte	4
 1211 0238 5A       		.byte	90
 1212 0239 04       		.byte	4
 1213 023a 5C       		.byte	92
 1214 023b 11       		.byte	17
 1215 023c 5D       		.byte	93
 1216 023d 01       		.byte	1
 1217 023e 5F       		.byte	95
 1218 023f 01       		.byte	1
 1219 0240 60       		.byte	96
 1220 0241 40       		.byte	64
 1221 0242 62       		.byte	98
 1222 0243 80       		.byte	-128
 1223 0244 64       		.byte	100
 1224 0245 40       		.byte	64
 1225 0246 65       		.byte	101
 1226 0247 40       		.byte	64
 1227 0248 66       		.byte	102
 1228 0249 80       		.byte	-128
 1229 024a 68       		.byte	104
 1230 024b 40       		.byte	64
 1231 024c 6A       		.byte	106
 1232 024d 80       		.byte	-128
 1233 024e 6C       		.byte	108
 1234 024f 40       		.byte	64
 1235 0250 6D       		.byte	109
 1236 0251 20       		.byte	32
 1237 0252 6E       		.byte	110
 1238 0253 80       		.byte	-128
 1239 0254 83       		.byte	-125
 1240 0255 01       		.byte	1
 1241 0256 87       		.byte	-121
 1242 0257 02       		.byte	2
 1243 0258 8B       		.byte	-117
 1244 0259 04       		.byte	4
 1245 025a 8D       		.byte	-115
 1246 025b 02       		.byte	2
 1247 025c 91       		.byte	-111
 1248 025d 01       		.byte	1
 1249 025e 97       		.byte	-105
 1250 025f 09       		.byte	9
 1251 0260 98       		.byte	-104
 1252 0261 03       		.byte	3
 1253 0262 99       		.byte	-103
 1254 0263 02       		.byte	2
 1255 0264 9A       		.byte	-102
 1256 0265 0C       		.byte	12
 1257 0266 9C       		.byte	-100
 1258 0267 08       		.byte	8
ARM GAS  C:\Users\kratz\AppData\Local\Temp\cc1LLP2W.s 			page 42


 1259 0268 9D       		.byte	-99
 1260 0269 02       		.byte	2
 1261 026a A0       		.byte	-96
 1262 026b 03       		.byte	3
 1263 026c A4       		.byte	-92
 1264 026d 01       		.byte	1
 1265 026e A5       		.byte	-91
 1266 026f 02       		.byte	2
 1267 0270 B0       		.byte	-80
 1268 0271 01       		.byte	1
 1269 0272 B2       		.byte	-78
 1270 0273 02       		.byte	2
 1271 0274 B3       		.byte	-77
 1272 0275 01       		.byte	1
 1273 0276 B4       		.byte	-76
 1274 0277 08       		.byte	8
 1275 0278 B5       		.byte	-75
 1276 0279 06       		.byte	6
 1277 027a B6       		.byte	-74
 1278 027b 04       		.byte	4
 1279 027c B7       		.byte	-73
 1280 027d 08       		.byte	8
 1281 027e B8       		.byte	-72
 1282 027f 0A       		.byte	10
 1283 0280 BE       		.byte	-66
 1284 0281 11       		.byte	17
 1285 0282 BF       		.byte	-65
 1286 0283 04       		.byte	4
 1287 0284 C0       		.byte	-64
 1288 0285 24       		.byte	36
 1289 0286 C1       		.byte	-63
 1290 0287 06       		.byte	6
 1291 0288 C5       		.byte	-59
 1292 0289 43       		.byte	67
 1293 028a C6       		.byte	-58
 1294 028b C2       		.byte	-62
 1295 028c C7       		.byte	-57
 1296 028d 0E       		.byte	14
 1297 028e C8       		.byte	-56
 1298 028f 1F       		.byte	31
 1299 0290 C9       		.byte	-55
 1300 0291 FF       		.byte	-1
 1301 0292 CA       		.byte	-54
 1302 0293 FF       		.byte	-1
 1303 0294 CB       		.byte	-53
 1304 0295 FF       		.byte	-1
 1305 0296 CD       		.byte	-51
 1306 0297 AF       		.byte	-81
 1307 0298 CE       		.byte	-50
 1308 0299 07       		.byte	7
 1309 029a CF       		.byte	-49
 1310 029b 01       		.byte	1
 1311 029c D0       		.byte	-48
 1312 029d 18       		.byte	24
 1313 029e D2       		.byte	-46
 1314 029f 80       		.byte	-128
 1315 02a0 D8       		.byte	-40
ARM GAS  C:\Users\kratz\AppData\Local\Temp\cc1LLP2W.s 			page 43


 1316 02a1 04       		.byte	4
 1317 02a2 D9       		.byte	-39
 1318 02a3 04       		.byte	4
 1319 02a4 DA       		.byte	-38
 1320 02a5 04       		.byte	4
 1321 02a6 DB       		.byte	-37
 1322 02a7 04       		.byte	4
 1323 02a8 DC       		.byte	-36
 1324 02a9 11       		.byte	17
 1325 02aa DD       		.byte	-35
 1326 02ab 11       		.byte	17
 1327 02ac DF       		.byte	-33
 1328 02ad 01       		.byte	1
 1329 02ae E0       		.byte	-32
 1330 02af 40       		.byte	64
 1331 02b0 E2       		.byte	-30
 1332 02b1 80       		.byte	-128
 1333 02b2 E4       		.byte	-28
 1334 02b3 40       		.byte	64
 1335 02b4 E5       		.byte	-27
 1336 02b5 40       		.byte	64
 1337 02b6 E6       		.byte	-26
 1338 02b7 80       		.byte	-128
 1339 02b8 E8       		.byte	-24
 1340 02b9 40       		.byte	64
 1341 02ba EA       		.byte	-22
 1342 02bb 80       		.byte	-128
 1343 02bc EC       		.byte	-20
 1344 02bd 40       		.byte	64
 1345 02be ED       		.byte	-19
 1346 02bf 20       		.byte	32
 1347 02c0 EE       		.byte	-18
 1348 02c1 80       		.byte	-128
 1349 02c2 01       		.byte	1
 1350 02c3 80       		.byte	-128
 1351 02c4 0E       		.byte	14
 1352 02c5 02       		.byte	2
 1353 02c6 0F       		.byte	15
 1354 02c7 08       		.byte	8
 1355 02c8 11       		.byte	17
 1356 02c9 80       		.byte	-128
 1357 02ca 12       		.byte	18
 1358 02cb 01       		.byte	1
 1359 02cc 15       		.byte	21
 1360 02cd 08       		.byte	8
 1361 02ce 16       		.byte	22
 1362 02cf 80       		.byte	-128
 1363 02d0 19       		.byte	25
 1364 02d1 10       		.byte	16
 1365 02d2 1C       		.byte	28
 1366 02d3 60       		.byte	96
 1367 02d4 1D       		.byte	29
 1368 02d5 02       		.byte	2
 1369 02d6 1E       		.byte	30
 1370 02d7 0A       		.byte	10
 1371 02d8 21       		.byte	33
 1372 02d9 04       		.byte	4
ARM GAS  C:\Users\kratz\AppData\Local\Temp\cc1LLP2W.s 			page 44


 1373 02da 22       		.byte	34
 1374 02db 08       		.byte	8
 1375 02dc 23       		.byte	35
 1376 02dd 14       		.byte	20
 1377 02de 27       		.byte	39
 1378 02df 15       		.byte	21
 1379 02e0 28       		.byte	40
 1380 02e1 02       		.byte	2
 1381 02e2 29       		.byte	41
 1382 02e3 08       		.byte	8
 1383 02e4 2A       		.byte	42
 1384 02e5 01       		.byte	1
 1385 02e6 2D       		.byte	45
 1386 02e7 08       		.byte	8
 1387 02e8 2E       		.byte	46
 1388 02e9 04       		.byte	4
 1389 02ea 32       		.byte	50
 1390 02eb 88       		.byte	-120
 1391 02ec 35       		.byte	53
 1392 02ed 10       		.byte	16
 1393 02ee 36       		.byte	54
 1394 02ef 80       		.byte	-128
 1395 02f0 37       		.byte	55
 1396 02f1 05       		.byte	5
 1397 02f2 3C       		.byte	60
 1398 02f3 02       		.byte	2
 1399 02f4 3D       		.byte	61
 1400 02f5 A0       		.byte	-96
 1401 02f6 3F       		.byte	63
 1402 02f7 04       		.byte	4
 1403 02f8 40       		.byte	64
 1404 02f9 40       		.byte	64
 1405 02fa 43       		.byte	67
 1406 02fb 10       		.byte	16
 1407 02fc 45       		.byte	69
 1408 02fd 02       		.byte	2
 1409 02fe 47       		.byte	71
 1410 02ff 10       		.byte	16
 1411 0300 48       		.byte	72
 1412 0301 04       		.byte	4
 1413 0302 49       		.byte	73
 1414 0303 20       		.byte	32
 1415 0304 4C       		.byte	76
 1416 0305 40       		.byte	64
 1417 0306 4D       		.byte	77
 1418 0307 20       		.byte	32
 1419 0308 4F       		.byte	79
 1420 0309 08       		.byte	8
 1421 030a 56       		.byte	86
 1422 030b A8       		.byte	-88
 1423 030c 57       		.byte	87
 1424 030d 80       		.byte	-128
 1425 030e 5E       		.byte	94
 1426 030f 20       		.byte	32
 1427 0310 5F       		.byte	95
 1428 0311 4A       		.byte	74
 1429 0312 64       		.byte	100
ARM GAS  C:\Users\kratz\AppData\Local\Temp\cc1LLP2W.s 			page 45


 1430 0313 08       		.byte	8
 1431 0314 65       		.byte	101
 1432 0315 10       		.byte	16
 1433 0316 74       		.byte	116
 1434 0317 01       		.byte	1
 1435 0318 92       		.byte	-110
 1436 0319 04       		.byte	4
 1437 031a 94       		.byte	-108
 1438 031b 80       		.byte	-128
 1439 031c 97       		.byte	-105
 1440 031d 04       		.byte	4
 1441 031e 9B       		.byte	-101
 1442 031f 0A       		.byte	10
 1443 0320 9C       		.byte	-100
 1444 0321 08       		.byte	8
 1445 0322 9D       		.byte	-99
 1446 0323 30       		.byte	48
 1447 0324 9E       		.byte	-98
 1448 0325 28       		.byte	40
 1449 0326 A1       		.byte	-95
 1450 0327 40       		.byte	64
 1451 0328 A2       		.byte	-94
 1452 0329 90       		.byte	-112
 1453 032a A4       		.byte	-92
 1454 032b 14       		.byte	20
 1455 032c A6       		.byte	-90
 1456 032d 0C       		.byte	12
 1457 032e A7       		.byte	-89
 1458 032f 80       		.byte	-128
 1459 0330 AB       		.byte	-85
 1460 0331 18       		.byte	24
 1461 0332 B0       		.byte	-80
 1462 0333 10       		.byte	16
 1463 0334 B3       		.byte	-77
 1464 0335 40       		.byte	64
 1465 0336 C0       		.byte	-64
 1466 0337 01       		.byte	1
 1467 0338 C2       		.byte	-62
 1468 0339 C0       		.byte	-64
 1469 033a C4       		.byte	-60
 1470 033b 30       		.byte	48
 1471 033c CA       		.byte	-54
 1472 033d 4B       		.byte	75
 1473 033e CC       		.byte	-52
 1474 033f FA       		.byte	-6
 1475 0340 CE       		.byte	-50
 1476 0341 F0       		.byte	-16
 1477 0342 D0       		.byte	-48
 1478 0343 A5       		.byte	-91
 1479 0344 D2       		.byte	-46
 1480 0345 24       		.byte	36
 1481 0346 D6       		.byte	-42
 1482 0347 F0       		.byte	-16
 1483 0348 05       		.byte	5
 1484 0349 96       		.byte	-106
 1485 034a 07       		.byte	7
 1486 034b 68       		.byte	104
ARM GAS  C:\Users\kratz\AppData\Local\Temp\cc1LLP2W.s 			page 46


 1487 034c 09       		.byte	9
 1488 034d 7F       		.byte	127
 1489 034e 0D       		.byte	13
 1490 034f C5       		.byte	-59
 1491 0350 0F       		.byte	15
 1492 0351 3A       		.byte	58
 1493 0352 10       		.byte	16
 1494 0353 02       		.byte	2
 1495 0354 17       		.byte	23
 1496 0355 01       		.byte	1
 1497 0356 19       		.byte	25
 1498 0357 0E       		.byte	14
 1499 0358 1B       		.byte	27
 1500 0359 F0       		.byte	-16
 1501 035a 1D       		.byte	29
 1502 035b FE       		.byte	-2
 1503 035c 1F       		.byte	31
 1504 035d 01       		.byte	1
 1505 035e 20       		.byte	32
 1506 035f 08       		.byte	8
 1507 0360 24       		.byte	36
 1508 0361 01       		.byte	1
 1509 0362 25       		.byte	37
 1510 0363 A3       		.byte	-93
 1511 0364 27       		.byte	39
 1512 0365 5C       		.byte	92
 1513 0366 2C       		.byte	44
 1514 0367 04       		.byte	4
 1515 0368 30       		.byte	48
 1516 0369 01       		.byte	1
 1517 036a 32       		.byte	50
 1518 036b 02       		.byte	2
 1519 036c 34       		.byte	52
 1520 036d 04       		.byte	4
 1521 036e 35       		.byte	53
 1522 036f FF       		.byte	-1
 1523 0370 36       		.byte	54
 1524 0371 08       		.byte	8
 1525 0372 3E       		.byte	62
 1526 0373 40       		.byte	64
 1527 0374 3F       		.byte	63
 1528 0375 10       		.byte	16
 1529 0376 56       		.byte	86
 1530 0377 04       		.byte	4
 1531 0378 58       		.byte	88
 1532 0379 04       		.byte	4
 1533 037a 59       		.byte	89
 1534 037b 04       		.byte	4
 1535 037c 5B       		.byte	91
 1536 037d 04       		.byte	4
 1537 037e 5C       		.byte	92
 1538 037f 03       		.byte	3
 1539 0380 5F       		.byte	95
 1540 0381 01       		.byte	1
 1541 0382 80       		.byte	-128
 1542 0383 FD       		.byte	-3
 1543 0384 82       		.byte	-126
ARM GAS  C:\Users\kratz\AppData\Local\Temp\cc1LLP2W.s 			page 47


 1544 0385 02       		.byte	2
 1545 0386 85       		.byte	-123
 1546 0387 04       		.byte	4
 1547 0388 86       		.byte	-122
 1548 0389 0F       		.byte	15
 1549 038a 88       		.byte	-120
 1550 038b 94       		.byte	-108
 1551 038c 89       		.byte	-119
 1552 038d 07       		.byte	7
 1553 038e 8A       		.byte	-118
 1554 038f 60       		.byte	96
 1555 0390 8D       		.byte	-115
 1556 0391 01       		.byte	1
 1557 0392 8F       		.byte	-113
 1558 0393 02       		.byte	2
 1559 0394 97       		.byte	-105
 1560 0395 04       		.byte	4
 1561 0396 98       		.byte	-104
 1562 0397 CF       		.byte	-49
 1563 0398 9A       		.byte	-102
 1564 0399 30       		.byte	48
 1565 039a 9B       		.byte	-101
 1566 039b 07       		.byte	7
 1567 039c 9C       		.byte	-100
 1568 039d 9E       		.byte	-98
 1569 039e 9D       		.byte	-99
 1570 039f 07       		.byte	7
 1571 03a0 9E       		.byte	-98
 1572 03a1 60       		.byte	96
 1573 03a2 A4       		.byte	-92
 1574 03a3 30       		.byte	48
 1575 03a4 A6       		.byte	-90
 1576 03a5 C9       		.byte	-55
 1577 03a6 A7       		.byte	-89
 1578 03a7 08       		.byte	8
 1579 03a8 A8       		.byte	-88
 1580 03a9 73       		.byte	115
 1581 03aa A9       		.byte	-87
 1582 03ab 01       		.byte	1
 1583 03ac AB       		.byte	-85
 1584 03ad 02       		.byte	2
 1585 03ae B2       		.byte	-78
 1586 03af FF       		.byte	-1
 1587 03b0 B5       		.byte	-75
 1588 03b1 0F       		.byte	15
 1589 03b2 BE       		.byte	-66
 1590 03b3 04       		.byte	4
 1591 03b4 D8       		.byte	-40
 1592 03b5 04       		.byte	4
 1593 03b6 D9       		.byte	-39
 1594 03b7 04       		.byte	4
 1595 03b8 DC       		.byte	-36
 1596 03b9 10       		.byte	16
 1597 03ba DF       		.byte	-33
 1598 03bb 01       		.byte	1
 1599 03bc 00       		.byte	0
 1600 03bd 08       		.byte	8
ARM GAS  C:\Users\kratz\AppData\Local\Temp\cc1LLP2W.s 			page 48


 1601 03be 01       		.byte	1
 1602 03bf 20       		.byte	32
 1603 03c0 02       		.byte	2
 1604 03c1 80       		.byte	-128
 1605 03c2 09       		.byte	9
 1606 03c3 40       		.byte	64
 1607 03c4 0A       		.byte	10
 1608 03c5 0C       		.byte	12
 1609 03c6 0D       		.byte	13
 1610 03c7 01       		.byte	1
 1611 03c8 13       		.byte	19
 1612 03c9 14       		.byte	20
 1613 03ca 15       		.byte	21
 1614 03cb 01       		.byte	1
 1615 03cc 16       		.byte	22
 1616 03cd 12       		.byte	18
 1617 03ce 19       		.byte	25
 1618 03cf 08       		.byte	8
 1619 03d0 1D       		.byte	29
 1620 03d1 40       		.byte	64
 1621 03d2 1E       		.byte	30
 1622 03d3 68       		.byte	104
 1623 03d4 20       		.byte	32
 1624 03d5 08       		.byte	8
 1625 03d6 22       		.byte	34
 1626 03d7 10       		.byte	16
 1627 03d8 25       		.byte	37
 1628 03d9 10       		.byte	16
 1629 03da 29       		.byte	41
 1630 03db 18       		.byte	24
 1631 03dc 2E       		.byte	46
 1632 03dd 04       		.byte	4
 1633 03de 32       		.byte	50
 1634 03df 94       		.byte	-108
 1635 03e0 35       		.byte	53
 1636 03e1 30       		.byte	48
 1637 03e2 36       		.byte	54
 1638 03e3 80       		.byte	-128
 1639 03e4 37       		.byte	55
 1640 03e5 04       		.byte	4
 1641 03e6 38       		.byte	56
 1642 03e7 40       		.byte	64
 1643 03e8 3B       		.byte	59
 1644 03e9 14       		.byte	20
 1645 03ea 3C       		.byte	60
 1646 03eb 40       		.byte	64
 1647 03ec 3D       		.byte	61
 1648 03ed 80       		.byte	-128
 1649 03ee 3F       		.byte	63
 1650 03ef 14       		.byte	20
 1651 03f0 49       		.byte	73
 1652 03f1 40       		.byte	64
 1653 03f2 4B       		.byte	75
 1654 03f3 40       		.byte	64
 1655 03f4 5E       		.byte	94
 1656 03f5 68       		.byte	104
 1657 03f6 67       		.byte	103
ARM GAS  C:\Users\kratz\AppData\Local\Temp\cc1LLP2W.s 			page 49


 1658 03f7 80       		.byte	-128
 1659 03f8 85       		.byte	-123
 1660 03f9 01       		.byte	1
 1661 03fa 86       		.byte	-122
 1662 03fb 02       		.byte	2
 1663 03fc 87       		.byte	-121
 1664 03fd 40       		.byte	64
 1665 03fe 89       		.byte	-119
 1666 03ff 01       		.byte	1
 1667 0400 92       		.byte	-110
 1668 0401 04       		.byte	4
 1669 0402 93       		.byte	-109
 1670 0403 14       		.byte	20
 1671 0404 97       		.byte	-105
 1672 0405 40       		.byte	64
 1673 0406 99       		.byte	-103
 1674 0407 10       		.byte	16
 1675 0408 9A       		.byte	-102
 1676 0409 10       		.byte	16
 1677 040a 9B       		.byte	-101
 1678 040b 04       		.byte	4
 1679 040c A1       		.byte	-95
 1680 040d 40       		.byte	64
 1681 040e A2       		.byte	-94
 1682 040f 80       		.byte	-128
 1683 0410 A4       		.byte	-92
 1684 0411 04       		.byte	4
 1685 0412 A5       		.byte	-91
 1686 0413 10       		.byte	16
 1687 0414 A9       		.byte	-87
 1688 0415 80       		.byte	-128
 1689 0416 B2       		.byte	-78
 1690 0417 10       		.byte	16
 1691 0418 B4       		.byte	-76
 1692 0419 02       		.byte	2
 1693 041a C0       		.byte	-64
 1694 041b 0E       		.byte	14
 1695 041c C2       		.byte	-62
 1696 041d 13       		.byte	19
 1697 041e C4       		.byte	-60
 1698 041f B6       		.byte	-74
 1699 0420 CA       		.byte	-54
 1700 0421 46       		.byte	70
 1701 0422 CC       		.byte	-52
 1702 0423 7E       		.byte	126
 1703 0424 CE       		.byte	-50
 1704 0425 7E       		.byte	126
 1705 0426 D6       		.byte	-42
 1706 0427 70       		.byte	112
 1707 0428 D8       		.byte	-40
 1708 0429 80       		.byte	-128
 1709 042a E4       		.byte	-28
 1710 042b 80       		.byte	-128
 1711 042c EA       		.byte	-22
 1712 042d 04       		.byte	4
 1713 042e 5F       		.byte	95
 1714 042f 08       		.byte	8
ARM GAS  C:\Users\kratz\AppData\Local\Temp\cc1LLP2W.s 			page 50


 1715 0430 68       		.byte	104
 1716 0431 04       		.byte	4
 1717 0432 6F       		.byte	111
 1718 0433 02       		.byte	2
 1719 0434 70       		.byte	112
 1720 0435 10       		.byte	16
 1721 0436 80       		.byte	-128
 1722 0437 10       		.byte	16
 1723 0438 84       		.byte	-124
 1724 0439 04       		.byte	4
 1725 043a D6       		.byte	-42
 1726 043b 80       		.byte	-128
 1727 043c DA       		.byte	-38
 1728 043d C0       		.byte	-64
 1729 043e DC       		.byte	-36
 1730 043f 20       		.byte	32
 1731 0440 E2       		.byte	-30
 1732 0441 20       		.byte	32
 1733 0442 E6       		.byte	-26
 1734 0443 40       		.byte	64
 1735 0444 01       		.byte	1
 1736 0445 20       		.byte	32
 1737 0446 07       		.byte	7
 1738 0447 02       		.byte	2
 1739 0448 0C       		.byte	12
 1740 0449 02       		.byte	2
 1741 044a 8B       		.byte	-117
 1742 044b 02       		.byte	2
 1743 044c 9F       		.byte	-97
 1744 044d 08       		.byte	8
 1745 044e A7       		.byte	-89
 1746 044f 02       		.byte	2
 1747 0450 C0       		.byte	-64
 1748 0451 C0       		.byte	-64
 1749 0452 C2       		.byte	-62
 1750 0453 20       		.byte	32
 1751 0454 13       		.byte	19
 1752 0455 08       		.byte	8
 1753 0456 9F       		.byte	-97
 1754 0457 08       		.byte	8
 1755 0458 A7       		.byte	-89
 1756 0459 02       		.byte	2
 1757 045a A8       		.byte	-88
 1758 045b 02       		.byte	2
 1759 045c A9       		.byte	-87
 1760 045d 20       		.byte	32
 1761 045e C4       		.byte	-60
 1762 045f 10       		.byte	16
 1763 0460 E8       		.byte	-24
 1764 0461 20       		.byte	32
 1765 0462 EC       		.byte	-20
 1766 0463 80       		.byte	-128
 1767 0464 00       		.byte	0
 1768 0465 20       		.byte	32
 1769 0466 03       		.byte	3
 1770 0467 20       		.byte	32
 1771 0468 0C       		.byte	12
ARM GAS  C:\Users\kratz\AppData\Local\Temp\cc1LLP2W.s 			page 51


 1772 0469 10       		.byte	16
 1773 046a 84       		.byte	-124
 1774 046b 10       		.byte	16
 1775 046c 87       		.byte	-121
 1776 046d 22       		.byte	34
 1777 046e 88       		.byte	-120
 1778 046f 10       		.byte	16
 1779 0470 A7       		.byte	-89
 1780 0471 02       		.byte	2
 1781 0472 C0       		.byte	-64
 1782 0473 50       		.byte	80
 1783 0474 C2       		.byte	-62
 1784 0475 80       		.byte	-128
 1785 0476 E2       		.byte	-30
 1786 0477 10       		.byte	16
 1787 0478 E4       		.byte	-28
 1788 0479 50       		.byte	80
 1789 047a 09       		.byte	9
 1790 047b 02       		.byte	2
 1791 047c C2       		.byte	-62
 1792 047d 08       		.byte	8
 1793 047e 08       		.byte	8
 1794 047f 80       		.byte	-128
 1795 0480 0C       		.byte	12
 1796 0481 80       		.byte	-128
 1797 0482 A1       		.byte	-95
 1798 0483 02       		.byte	2
 1799 0484 C2       		.byte	-62
 1800 0485 03       		.byte	3
 1801 0486 A8       		.byte	-88
 1802 0487 80       		.byte	-128
 1803 0488 B1       		.byte	-79
 1804 0489 02       		.byte	2
 1805 048a B4       		.byte	-76
 1806 048b 80       		.byte	-128
 1807 048c EA       		.byte	-22
 1808 048d 08       		.byte	8
 1809 048e EE       		.byte	-18
 1810 048f 04       		.byte	4
 1811 0490 01       		.byte	1
 1812 0491 0A       		.byte	10
 1813 0492 10       		.byte	16
 1814 0493 02       		.byte	2
 1815 0494 12       		.byte	18
 1816 0495 0A       		.byte	10
 1817 0496 0000     		.space	2
 1818              		.type	cy_cfg_addr_table.4971, %object
 1819              		.size	cy_cfg_addr_table.4971, 68
 1820              	cy_cfg_addr_table.4971:
 1821 0498 04000F40 		.word	1074724868
 1822 049c 4E300F40 		.word	1074737230
 1823 04a0 2C310F40 		.word	1074737452
 1824 04a4 47320F40 		.word	1074737735
 1825 04a8 3D330F40 		.word	1074737981
 1826 04ac 59340F40 		.word	1074738265
 1827 04b0 43350F40 		.word	1074738499
 1828 04b4 3A360F40 		.word	1074738746
ARM GAS  C:\Users\kratz\AppData\Local\Temp\cc1LLP2W.s 			page 52


 1829 04b8 39370F40 		.word	1074739001
 1830 04bc 0B400F40 		.word	1074741259
 1831 04c0 08410F40 		.word	1074741512
 1832 04c4 08420F40 		.word	1074741768
 1833 04c8 0B430F40 		.word	1074742027
 1834 04cc 02450F40 		.word	1074742530
 1835 04d0 04460F40 		.word	1074742788
 1836 04d4 05470F40 		.word	1074743045
 1837 04d8 03600F40 		.word	1074749443
 1838              		.text
 1839              	.Letext0:
 1840              		.file 2 "c:\\program files (x86)\\cypress\\psoc creator\\4.4\\psoc creator\\import\\gnu\\arm\\5.4.
 1841              		.file 3 "Generated_Source\\PSoC4\\cytypes.h"
 1842              		.file 4 "Generated_Source\\PSoC4\\CyLFClk.h"
 1843              		.file 5 "Generated_Source\\PSoC4\\CyLib.h"