ARM GAS  C:\Users\kratz\AppData\Local\Temp\ccHmhsFf.s 			page 1


   1              		.syntax unified
   2              		.cpu cortex-m0
   3              		.fpu softvfp
   4              		.eabi_attribute 20, 1
   5              		.eabi_attribute 21, 1
   6              		.eabi_attribute 23, 3
   7              		.eabi_attribute 24, 1
   8              		.eabi_attribute 25, 1
   9              		.eabi_attribute 26, 1
  10              		.eabi_attribute 30, 1
  11              		.eabi_attribute 34, 0
  12              		.eabi_attribute 18, 4
  13              		.thumb
  14              		.syntax unified
  15              		.file	"main.c"
  16              		.text
  17              	.Ltext0:
  18              		.cfi_sections	.debug_frame
  19              		.section	.text.Period_Reset_Handler,"ax",%progbits
  20              		.align	2
  21              		.global	Period_Reset_Handler
  22              		.code	16
  23              		.thumb_func
  24              		.type	Period_Reset_Handler, %function
  25              	Period_Reset_Handler:
  26              	.LFB35:
  27              		.file 1 "main.c"
   1:main.c        **** // Main c file for HandBoard 2023
   2:main.c        **** 
   3:main.c        **** #include "main.h"
   4:main.c        **** #include "Motor_Unit_Debug.h"
   5:main.c        **** #include "cyapicallbacks.h"
   6:main.c        **** #include "MotorDrive.h"
   7:main.c        **** #include "Motor_Unit_CAN.h"
   8:main.c        **** #include "Motor_Unit_FSM.h"
   9:main.c        **** #include "PositionPID.h"
  10:main.c        **** #include "PCA9685.h"
  11:main.c        **** 
  12:main.c        **** 
  13:main.c        **** // TODO: add I^2C block, integrate PCA6835... driver 
  14:main.c        **** 
  15:main.c        **** #ifdef RGB_LED_ARRAY
  16:main.c        **** #include "LED_Array.h"
  17:main.c        **** extern const uint32 StripLights_CLUT[ ];
  18:main.c        **** #endif
  19:main.c        **** 
  20:main.c        **** //LED
  21:main.c        **** uint8_t CAN_time_LED = 0;
  22:main.c        **** uint8_t ERRORTimeLED = 0;
  23:main.c        **** 
  24:main.c        **** int32_t millidegreeTarget = 0;
  25:main.c        **** 
  26:main.c        **** //Uart variables
  27:main.c        **** char txData[TX_DATA_SIZE];
  28:main.c        **** 
  29:main.c        **** //drive varaible
  30:main.c        **** int16 nextPWM = 0;
ARM GAS  C:\Users\kratz\AppData\Local\Temp\ccHmhsFf.s 			page 2


  31:main.c        **** extern uint8 invalidate;
  32:main.c        **** uint8_t ignoreLimSw = 0;
  33:main.c        **** uint8_t encoderTimeOut = 0;
  34:main.c        **** 
  35:main.c        **** uint8 address = 0;
  36:main.c        **** 
  37:main.c        **** //Status and Data Structs
  38:main.c        **** volatile uint8 drive = 0;
  39:main.c        **** uint8_t CAN_check_delay = 0;
  40:main.c        **** CANPacket can_recieve;
  41:main.c        **** CANPacket can_send;
  42:main.c        **** 
  43:main.c        **** CY_ISR(Period_Reset_Handler) {
  28              		.loc 1 43 0
  29              		.cfi_startproc
  30              		@ args = 0, pretend = 0, frame = 0
  31              		@ frame_needed = 0, uses_anonymous_args = 0
  32 0000 10B5     		push	{r4, lr}
  33              		.cfi_def_cfa_offset 8
  34              		.cfi_offset 4, -8
  35              		.cfi_offset 14, -4
  44:main.c        ****     int timer = Timer_PWM_ReadStatusRegister();
  36              		.loc 1 44 0
  37 0002 FFF7FEFF 		bl	Timer_PWM_ReadStatusRegister
  38              	.LVL0:
  45:main.c        ****     invalidate++;
  39              		.loc 1 45 0
  40 0006 114A     		ldr	r2, .L4
  41 0008 1378     		ldrb	r3, [r2]
  42 000a 0133     		adds	r3, r3, #1
  43 000c 1370     		strb	r3, [r2]
  46:main.c        ****     CAN_time_LED++;
  44              		.loc 1 46 0
  45 000e 104B     		ldr	r3, .L4+4
  46 0010 1A78     		ldrb	r2, [r3]
  47 0012 0132     		adds	r2, r2, #1
  48 0014 1A70     		strb	r2, [r3]
  47:main.c        ****     CAN_check_delay ++;
  49              		.loc 1 47 0
  50 0016 5A78     		ldrb	r2, [r3, #1]
  51 0018 0132     		adds	r2, r2, #1
  52 001a 5A70     		strb	r2, [r3, #1]
  48:main.c        ****     ERRORTimeLED++;
  53              		.loc 1 48 0
  54 001c 9A78     		ldrb	r2, [r3, #2]
  55 001e 0132     		adds	r2, r2, #1
  56 0020 9A70     		strb	r2, [r3, #2]
  49:main.c        ****     encoderTimeOut++;
  57              		.loc 1 49 0
  58 0022 DA78     		ldrb	r2, [r3, #3]
  59 0024 0132     		adds	r2, r2, #1
  60 0026 D2B2     		uxtb	r2, r2
  61 0028 DA70     		strb	r2, [r3, #3]
  50:main.c        ****     if(encoderTimeOut >= 2){
  62              		.loc 1 50 0
  63 002a 012A     		cmp	r2, #1
  64 002c 04D9     		bls	.L2
ARM GAS  C:\Users\kratz\AppData\Local\Temp\ccHmhsFf.s 			page 3


  51:main.c        ****         encoderTimeOut = 0;
  65              		.loc 1 51 0
  66 002e 0022     		movs	r2, #0
  67 0030 DA70     		strb	r2, [r3, #3]
  52:main.c        ****         SendEncoderData(&can_send);
  68              		.loc 1 52 0
  69 0032 0848     		ldr	r0, .L4+8
  70 0034 FFF7FEFF 		bl	SendEncoderData
  71              	.LVL1:
  72              	.L2:
  53:main.c        ****     }
  54:main.c        ****     if(invalidate >= 20){
  73              		.loc 1 54 0
  74 0038 044B     		ldr	r3, .L4
  75 003a 1B78     		ldrb	r3, [r3]
  76 003c 132B     		cmp	r3, #19
  77 003e 04D9     		bls	.L1
  55:main.c        ****         set_PWM(0, 0, 0);   
  78              		.loc 1 55 0
  79 0040 0022     		movs	r2, #0
  80 0042 0021     		movs	r1, #0
  81 0044 0020     		movs	r0, #0
  82 0046 FFF7FEFF 		bl	set_PWM
  83              	.LVL2:
  84              	.L1:
  56:main.c        ****     }
  57:main.c        ****     if(ERRORTimeLED >= 3) {
  58:main.c        ****         #ifdef ERROR_LED
  59:main.c        ****         ERROR_LED_Write(LED_OFF);
  60:main.c        ****         #endif
  61:main.c        ****         #ifdef DEBUG_LED1   
  62:main.c        ****         Debug_1_Write(LED_OFF);
  63:main.c        ****         #endif
  64:main.c        ****         #ifdef DEBUG_LED2
  65:main.c        ****         Debug_2_Write(LED_OFF);
  66:main.c        ****         #endif
  67:main.c        ****     }
  68:main.c        ****     if(CAN_time_LED >= 3){
  69:main.c        ****         #ifdef CAN_LED
  70:main.c        ****         CAN_LED_Write(LED_OFF);
  71:main.c        ****         #endif
  72:main.c        ****     }
  73:main.c        **** }
  85              		.loc 1 73 0
  86              		@ sp needed
  87 004a 10BD     		pop	{r4, pc}
  88              	.L5:
  89              		.align	2
  90              	.L4:
  91 004c 00000000 		.word	invalidate
  92 0050 00000000 		.word	.LANCHOR0
  93 0054 00000000 		.word	can_send
  94              		.cfi_endproc
  95              	.LFE35:
  96              		.size	Period_Reset_Handler, .-Period_Reset_Handler
  97              		.section	.text.Pin_Limit_Handler,"ax",%progbits
  98              		.align	2
ARM GAS  C:\Users\kratz\AppData\Local\Temp\ccHmhsFf.s 			page 4


  99              		.global	Pin_Limit_Handler
 100              		.code	16
 101              		.thumb_func
 102              		.type	Pin_Limit_Handler, %function
 103              	Pin_Limit_Handler:
 104              	.LFB36:
  74:main.c        ****   
  75:main.c        **** CY_ISR(Pin_Limit_Handler){
 105              		.loc 1 75 0
 106              		.cfi_startproc
 107              		@ args = 0, pretend = 0, frame = 0
 108              		@ frame_needed = 0, uses_anonymous_args = 0
 109 0000 70B5     		push	{r4, r5, r6, lr}
 110              		.cfi_def_cfa_offset 16
 111              		.cfi_offset 4, -16
 112              		.cfi_offset 5, -12
 113              		.cfi_offset 6, -8
 114              		.cfi_offset 14, -4
  76:main.c        ****     #ifdef PRINT_LIMIT_SW_TRIGGER
  77:main.c        ****     sprintf(txData,"LimitSW triggerd Stat: %x \r\n", Status_Reg_Switches_Read() & 0b11);
  78:main.c        ****     UART_UartPutString(txData);
  79:main.c        ****     #endif
  80:main.c        ****     
  81:main.c        ****     set_PWM(GetCurrentPWM(), ignoreLimSw, Status_Reg_Switches_Read());
 115              		.loc 1 81 0
 116 0002 FFF7FEFF 		bl	GetCurrentPWM
 117              	.LVL3:
 118 0006 0400     		movs	r4, r0
 119 0008 0B4B     		ldr	r3, .L7
 120 000a 1D79     		ldrb	r5, [r3, #4]
 121 000c FFF7FEFF 		bl	Status_Reg_Switches_Read
 122              	.LVL4:
 123 0010 0200     		movs	r2, r0
 124 0012 2900     		movs	r1, r5
 125 0014 2000     		movs	r0, r4
 126 0016 FFF7FEFF 		bl	set_PWM
 127              	.LVL5:
  82:main.c        ****     
  83:main.c        ****     #ifdef CAN_TELEM_SEND
  84:main.c        ****     AssembleLimitSwitchAlertPacket(&can_send, DEVICE_GROUP_JETSON, 
  85:main.c        ****         DEVICE_SERIAL_JETSON, Status_Reg_Switches_Read() & 0b11);
 128              		.loc 1 85 0
 129 001a FFF7FEFF 		bl	Status_Reg_Switches_Read
 130              	.LVL6:
  84:main.c        ****         DEVICE_SERIAL_JETSON, Status_Reg_Switches_Read() & 0b11);
 131              		.loc 1 84 0
 132 001e 0323     		movs	r3, #3
 133 0020 0340     		ands	r3, r0
 134 0022 064C     		ldr	r4, .L7+4
 135 0024 0122     		movs	r2, #1
 136 0026 0221     		movs	r1, #2
 137 0028 2000     		movs	r0, r4
 138 002a FFF7FEFF 		bl	AssembleLimitSwitchAlertPacket
 139              	.LVL7:
  86:main.c        ****     SendCANPacket(&can_send);
 140              		.loc 1 86 0
 141 002e 2000     		movs	r0, r4
ARM GAS  C:\Users\kratz\AppData\Local\Temp\ccHmhsFf.s 			page 5


 142 0030 FFF7FEFF 		bl	SendCANPacket
 143              	.LVL8:
  87:main.c        ****     #endif
  88:main.c        ****     //TODO: Select Which Encoder zeros
  89:main.c        ****     //QuadDec_SetCounter(0);
  90:main.c        **** }
 144              		.loc 1 90 0
 145              		@ sp needed
 146 0034 70BD     		pop	{r4, r5, r6, pc}
 147              	.L8:
 148 0036 C046     		.align	2
 149              	.L7:
 150 0038 00000000 		.word	.LANCHOR0
 151 003c 00000000 		.word	can_send
 152              		.cfi_endproc
 153              	.LFE36:
 154              		.size	Pin_Limit_Handler, .-Pin_Limit_Handler
 155              		.section	.text.Initialize,"ax",%progbits
 156              		.align	2
 157              		.global	Initialize
 158              		.code	16
 159              		.thumb_func
 160              		.type	Initialize, %function
 161              	Initialize:
 162              	.LFB38:
  91:main.c        **** int main(void){
  92:main.c        ****   Initialize();
  93:main.c        ****   
  94:main.c        ****   for(;;)
  95:main.c        ****     {
  96:main.c        ****         switch(GetState()) {
  97:main.c        ****             case(UNINIT):
  98:main.c        ****                 //idle animation
  99:main.c        ****                 SetStateTo(CHECK_CAN);
 100:main.c        ****                 break;
 101:main.c        ****             case(SET_PWM):
 102:main.c        ****                 set_PWM(nextPWM, ignoreLimSw, Status_Reg_Switches_Read());
 103:main.c        ****                 SetStateTo(CHECK_CAN);
 104:main.c        ****                 break;
 105:main.c        ****             case(CALC_PID):
 106:main.c        ****                 SetPosition(millidegreeTarget);   
 107:main.c        ****                 SetStateTo(CHECK_CAN);
 108:main.c        ****                 break;
 109:main.c        ****             case(QUEUE_ERROR):
 110:main.c        ****                 SetStateTo(CHECK_CAN);
 111:main.c        ****                 break;
 112:main.c        ****             case(CHECK_CAN):
 113:main.c        ****                 NextStateFromCAN(&can_recieve, &can_send);
 114:main.c        ****                 #ifdef PRINT_CAN_PACKET
 115:main.c        ****                 PrintCanPacket(can_recieve);
 116:main.c        ****                 #endif
 117:main.c        ****                 break;
 118:main.c        ****             default:
 119:main.c        ****                 //Should Never Get Here
 120:main.c        ****                 //TODO: ERROR
 121:main.c        ****                 GotoUninitState();
 122:main.c        ****                 break;
ARM GAS  C:\Users\kratz\AppData\Local\Temp\ccHmhsFf.s 			page 6


 123:main.c        **** 
 124:main.c        ****         }
 125:main.c        ****         #ifdef PRINT_FSM_STATE_MODE
 126:main.c        ****         sprintf(txData, "Mode: %x State:%x \r\n", GetMode(), GetState());
 127:main.c        ****         UART_UartPutString(txData);
 128:main.c        ****         #endif
 129:main.c        ****         #ifdef PRINT_SET_PID_CONST
 130:main.c        ****         sprintf(txData, "P: %d I: %d D: %d PPJ: %d Ready: %d \r\n", GetkPosition(), GetkIntegral() 
 131:main.c        ****         ,GetkDerivative(), GetkPPJR(), PIDconstsSet());
 132:main.c        ****         UART_UartPutString(txData);
 133:main.c        ****         #endif
 134:main.c        ****         #ifdef PRINT_ENCODER_VALUE
 135:main.c        ****         sprintf(txData, "Encoder Value: %d  \r\n", QuadDec_GetCounter());
 136:main.c        ****         UART_UartPutString(txData);
 137:main.c        ****         #endif
 138:main.c        ****     }
 139:main.c        **** 
 140:main.c        **** 
 141:main.c        ****     
 142:main.c        ****   
 143:main.c        **** }
 144:main.c        **** 
 145:main.c        **** void Initialize(void) {
 163              		.loc 1 145 0
 164              		.cfi_startproc
 165              		@ args = 0, pretend = 0, frame = 0
 166              		@ frame_needed = 0, uses_anonymous_args = 0
 167 0000 70B5     		push	{r4, r5, r6, lr}
 168              		.cfi_def_cfa_offset 16
 169              		.cfi_offset 4, -16
 170              		.cfi_offset 5, -12
 171              		.cfi_offset 6, -8
 172              		.cfi_offset 14, -4
 146:main.c        ****      // Enable global interrupts. LED arrays need this first
 147:main.c        ****     CyGlobalIntEnable;
 173              		.loc 1 147 0
 174              		.syntax divided
 175              	@ 147 "main.c" 1
 176 0002 62B6     		CPSIE   i
 177              	@ 0 "" 2
 148:main.c        ****     
 149:main.c        ****     Status_Reg_Switches_InterruptEnable();
 178              		.loc 1 149 0
 179              		.thumb
 180              		.syntax unified
 181 0004 FFF7FEFF 		bl	Status_Reg_Switches_InterruptEnable
 182              	.LVL9:
 150:main.c        ****     
 151:main.c        ****     address = Can_addr_Read();
 183              		.loc 1 151 0
 184 0008 FFF7FEFF 		bl	Can_addr_Read
 185              	.LVL10:
 186 000c 0E4C     		ldr	r4, .L10
 187 000e 6071     		strb	r0, [r4, #5]
 152:main.c        ****     
 153:main.c        ****     #ifdef ENABLE_DEBUG_UART
 154:main.c        ****     UART_Start();
ARM GAS  C:\Users\kratz\AppData\Local\Temp\ccHmhsFf.s 			page 7


 188              		.loc 1 154 0
 189 0010 FFF7FEFF 		bl	UART_Start
 190              	.LVL11:
 155:main.c        ****     sprintf(txData, "Dip Addr: %x \r\n", address);
 191              		.loc 1 155 0
 192 0014 6279     		ldrb	r2, [r4, #5]
 193 0016 0D4D     		ldr	r5, .L10+4
 194 0018 0D49     		ldr	r1, .L10+8
 195 001a 2800     		movs	r0, r5
 196 001c FFF7FEFF 		bl	sprintf
 197              	.LVL12:
 156:main.c        ****     UART_UartPutString(txData);
 198              		.loc 1 156 0
 199 0020 2800     		movs	r0, r5
 200 0022 FFF7FEFF 		bl	UART_UartPutString
 201              	.LVL13:
 157:main.c        ****     #endif
 158:main.c        ****     
 159:main.c        ****    // #ifdef ERROR_LED
 160:main.c        ****     //ERROR_LED_Write(~(address >> 3 & 1));
 161:main.c        ****     //#endif
 162:main.c        ****     
 163:main.c        ****     // FIXME: is this necessary?
 164:main.c        ****     #ifdef CAN_LED 
 165:main.c        ****     CAN_LED_Write(~address & 1);
 166:main.c        ****     #endif
 167:main.c        ****     
 168:main.c        ****     InitCAN(0x4, (int)address);
 202              		.loc 1 168 0
 203 0026 6179     		ldrb	r1, [r4, #5]
 204 0028 0420     		movs	r0, #4
 205 002a FFF7FEFF 		bl	InitCAN
 206              	.LVL14:
 169:main.c        ****     Timer_PWM_Start();
 207              		.loc 1 169 0
 208 002e FFF7FEFF 		bl	Timer_PWM_Start
 209              	.LVL15:
 170:main.c        ****     QuadDec_Start();
 210              		.loc 1 170 0
 211 0032 FFF7FEFF 		bl	QuadDec_Start
 212              	.LVL16:
 171:main.c        ****     PWM_Motor_Start();  
 213              		.loc 1 171 0
 214 0036 FFF7FEFF 		bl	PWM_Motor_Start
 215              	.LVL17:
 172:main.c        **** 
 173:main.c        ****     isr_Limit_1_StartEx(Pin_Limit_Handler);
 216              		.loc 1 173 0
 217 003a 0648     		ldr	r0, .L10+12
 218 003c FFF7FEFF 		bl	isr_Limit_1_StartEx
 219              	.LVL18:
 174:main.c        ****     isr_period_PWM_StartEx(Period_Reset_Handler);
 220              		.loc 1 174 0
 221 0040 0548     		ldr	r0, .L10+16
 222 0042 FFF7FEFF 		bl	isr_period_PWM_StartEx
 223              	.LVL19:
 175:main.c        **** } 
ARM GAS  C:\Users\kratz\AppData\Local\Temp\ccHmhsFf.s 			page 8


 224              		.loc 1 175 0
 225              		@ sp needed
 226 0046 70BD     		pop	{r4, r5, r6, pc}
 227              	.L11:
 228              		.align	2
 229              	.L10:
 230 0048 00000000 		.word	.LANCHOR0
 231 004c 00000000 		.word	txData
 232 0050 00000000 		.word	.LC6
 233 0054 00000000 		.word	Pin_Limit_Handler
 234 0058 00000000 		.word	Period_Reset_Handler
 235              		.cfi_endproc
 236              	.LFE38:
 237              		.size	Initialize, .-Initialize
 238              		.section	.text.main,"ax",%progbits
 239              		.align	2
 240              		.global	main
 241              		.code	16
 242              		.thumb_func
 243              		.type	main, %function
 244              	main:
 245              	.LFB37:
  91:main.c        ****   Initialize();
 246              		.loc 1 91 0
 247              		.cfi_startproc
 248              		@ Volatile: function does not return.
 249              		@ args = 0, pretend = 0, frame = 0
 250              		@ frame_needed = 0, uses_anonymous_args = 0
 251 0000 70B5     		push	{r4, r5, r6, lr}
 252              		.cfi_def_cfa_offset 16
 253              		.cfi_offset 4, -16
 254              		.cfi_offset 5, -12
 255              		.cfi_offset 6, -8
 256              		.cfi_offset 14, -4
  92:main.c        ****   
 257              		.loc 1 92 0
 258 0002 FFF7FEFF 		bl	Initialize
 259              	.LVL20:
 260              	.L13:
  96:main.c        ****             case(UNINIT):
 261              		.loc 1 96 0
 262 0006 FFF7FEFF 		bl	GetState
 263              	.LVL21:
 264 000a 0228     		cmp	r0, #2
 265 000c 28D0     		beq	.L15
 266 000e 04D8     		bhi	.L16
 267 0010 0028     		cmp	r0, #0
 268 0012 0AD0     		beq	.L17
 269 0014 0128     		cmp	r0, #1
 270 0016 17D0     		beq	.L18
 271 0018 27E0     		b	.L14
 272              	.L16:
 273 001a 0328     		cmp	r0, #3
 274 001c 1CD0     		beq	.L19
 275 001e FF28     		cmp	r0, #255
 276 0020 23D1     		bne	.L14
  99:main.c        ****                 break;
ARM GAS  C:\Users\kratz\AppData\Local\Temp\ccHmhsFf.s 			page 9


 277              		.loc 1 99 0
 278 0022 FD38     		subs	r0, r0, #253
 279 0024 FFF7FEFF 		bl	SetStateTo
 280              	.LVL22:
 100:main.c        ****             case(SET_PWM):
 281              		.loc 1 100 0
 282 0028 EDE7     		b	.L13
 283              	.L17:
 102:main.c        ****                 SetStateTo(CHECK_CAN);
 284              		.loc 1 102 0
 285 002a 114B     		ldr	r3, .L22
 286 002c 0622     		movs	r2, #6
 287 002e 9C5E     		ldrsh	r4, [r3, r2]
 288 0030 1D79     		ldrb	r5, [r3, #4]
 289 0032 FFF7FEFF 		bl	Status_Reg_Switches_Read
 290              	.LVL23:
 291 0036 0200     		movs	r2, r0
 292 0038 2900     		movs	r1, r5
 293 003a 2000     		movs	r0, r4
 294 003c FFF7FEFF 		bl	set_PWM
 295              	.LVL24:
 103:main.c        ****                 break;
 296              		.loc 1 103 0
 297 0040 0220     		movs	r0, #2
 298 0042 FFF7FEFF 		bl	SetStateTo
 299              	.LVL25:
 104:main.c        ****             case(CALC_PID):
 300              		.loc 1 104 0
 301 0046 DEE7     		b	.L13
 302              	.L18:
 106:main.c        ****                 SetStateTo(CHECK_CAN);
 303              		.loc 1 106 0
 304 0048 094B     		ldr	r3, .L22
 305 004a 9868     		ldr	r0, [r3, #8]
 306 004c FFF7FEFF 		bl	SetPosition
 307              	.LVL26:
 107:main.c        ****                 break;
 308              		.loc 1 107 0
 309 0050 0220     		movs	r0, #2
 310 0052 FFF7FEFF 		bl	SetStateTo
 311              	.LVL27:
 108:main.c        ****             case(QUEUE_ERROR):
 312              		.loc 1 108 0
 313 0056 D6E7     		b	.L13
 314              	.L19:
 110:main.c        ****                 break;
 315              		.loc 1 110 0
 316 0058 0220     		movs	r0, #2
 317 005a FFF7FEFF 		bl	SetStateTo
 318              	.LVL28:
 111:main.c        ****             case(CHECK_CAN):
 319              		.loc 1 111 0
 320 005e D2E7     		b	.L13
 321              	.L15:
 113:main.c        ****                 #ifdef PRINT_CAN_PACKET
 322              		.loc 1 113 0
 323 0060 0449     		ldr	r1, .L22+4
ARM GAS  C:\Users\kratz\AppData\Local\Temp\ccHmhsFf.s 			page 10


 324 0062 0548     		ldr	r0, .L22+8
 325 0064 FFF7FEFF 		bl	NextStateFromCAN
 326              	.LVL29:
 117:main.c        ****             default:
 327              		.loc 1 117 0
 328 0068 CDE7     		b	.L13
 329              	.L14:
 121:main.c        ****                 break;
 330              		.loc 1 121 0
 331 006a FFF7FEFF 		bl	GotoUninitState
 332              	.LVL30:
 122:main.c        **** 
 333              		.loc 1 122 0
 334 006e CAE7     		b	.L13
 335              	.L23:
 336              		.align	2
 337              	.L22:
 338 0070 00000000 		.word	.LANCHOR0
 339 0074 00000000 		.word	can_send
 340 0078 00000000 		.word	can_recieve
 341              		.cfi_endproc
 342              	.LFE37:
 343              		.size	main, .-main
 344              		.section	.text.PrintCanPacket,"ax",%progbits
 345              		.align	2
 346              		.global	PrintCanPacket
 347              		.code	16
 348              		.thumb_func
 349              		.type	PrintCanPacket, %function
 350              	PrintCanPacket:
 351              	.LFB39:
 176:main.c        **** 
 177:main.c        **** 
 178:main.c        **** 
 179:main.c        **** // FIXME: receivedPacket should really be a refernce to the can packet to avoid the copy
 180:main.c        **** void PrintCanPacket(CANPacket receivedPacket){
 352              		.loc 1 180 0
 353              		.cfi_startproc
 354              		@ args = 0, pretend = 0, frame = 16
 355              		@ frame_needed = 0, uses_anonymous_args = 0
 356 0000 30B5     		push	{r4, r5, lr}
 357              		.cfi_def_cfa_offset 12
 358              		.cfi_offset 4, -12
 359              		.cfi_offset 5, -8
 360              		.cfi_offset 14, -4
 361 0002 87B0     		sub	sp, sp, #28
 362              		.cfi_def_cfa_offset 40
 363 0004 0390     		str	r0, [sp, #12]
 364 0006 0491     		str	r1, [sp, #16]
 365 0008 0592     		str	r2, [sp, #20]
 366              	.LVL31:
 367              	.LBB2:
 181:main.c        ****     for(int i = 0; i < receivedPacket.dlc; i++) {
 368              		.loc 1 181 0
 369 000a 0023     		movs	r3, #0
 370 000c 0EE0     		b	.L25
 371              	.LVL32:
ARM GAS  C:\Users\kratz\AppData\Local\Temp\ccHmhsFf.s 			page 11


 372              	.L26:
 182:main.c        ****         sprintf(txData, "Byte%d %x   ", i+1, receivedPacket.data[i]);
 373              		.loc 1 182 0 discriminator 3
 374 000e 5C1C     		adds	r4, r3, #1
 375 0010 03AA     		add	r2, sp, #12
 376 0012 9446     		mov	ip, r2
 377 0014 6344     		add	r3, r3, ip
 378              	.LVL33:
 379 0016 DB78     		ldrb	r3, [r3, #3]
 380 0018 104D     		ldr	r5, .L27
 381 001a 2200     		movs	r2, r4
 382 001c 1049     		ldr	r1, .L27+4
 383 001e 2800     		movs	r0, r5
 384 0020 FFF7FEFF 		bl	sprintf
 385              	.LVL34:
 183:main.c        ****         UART_UartPutString(txData);
 386              		.loc 1 183 0 discriminator 3
 387 0024 2800     		movs	r0, r5
 388 0026 FFF7FEFF 		bl	UART_UartPutString
 389              	.LVL35:
 181:main.c        ****     for(int i = 0; i < receivedPacket.dlc; i++) {
 390              		.loc 1 181 0 discriminator 3
 391 002a 2300     		movs	r3, r4
 392              	.LVL36:
 393              	.L25:
 181:main.c        ****     for(int i = 0; i < receivedPacket.dlc; i++) {
 394              		.loc 1 181 0 is_stmt 0 discriminator 1
 395 002c 03AA     		add	r2, sp, #12
 396 002e 9278     		ldrb	r2, [r2, #2]
 397 0030 9342     		cmp	r3, r2
 398 0032 ECDB     		blt	.L26
 399              	.LBE2:
 184:main.c        ****     }
 185:main.c        **** 
 186:main.c        ****     sprintf(txData,"ID:%x %x %x\r\n",receivedPacket.id >> 10, 
 400              		.loc 1 186 0 is_stmt 1
 401 0034 03AB     		add	r3, sp, #12
 402              	.LVL37:
 403 0036 1988     		ldrh	r1, [r3]
 404 0038 8B09     		lsrs	r3, r1, #6
 405 003a 0F22     		movs	r2, #15
 406 003c 1340     		ands	r3, r2
 407 003e 8A0A     		lsrs	r2, r1, #10
 408 0040 064C     		ldr	r4, .L27
 409 0042 3F20     		movs	r0, #63
 410 0044 0140     		ands	r1, r0
 411 0046 0091     		str	r1, [sp]
 412 0048 0649     		ldr	r1, .L27+8
 413 004a 2000     		movs	r0, r4
 414 004c FFF7FEFF 		bl	sprintf
 415              	.LVL38:
 187:main.c        ****         (receivedPacket.id >> 6) & 0xF , receivedPacket.id & 0x3F);
 188:main.c        ****     UART_UartPutString(txData);
 416              		.loc 1 188 0
 417 0050 2000     		movs	r0, r4
 418 0052 FFF7FEFF 		bl	UART_UartPutString
 419              	.LVL39:
ARM GAS  C:\Users\kratz\AppData\Local\Temp\ccHmhsFf.s 			page 12


 189:main.c        **** }
 420              		.loc 1 189 0
 421 0056 07B0     		add	sp, sp, #28
 422              		@ sp needed
 423 0058 30BD     		pop	{r4, r5, pc}
 424              	.L28:
 425 005a C046     		.align	2
 426              	.L27:
 427 005c 00000000 		.word	txData
 428 0060 10000000 		.word	.LC14
 429 0064 20000000 		.word	.LC17
 430              		.cfi_endproc
 431              	.LFE39:
 432              		.size	PrintCanPacket, .-PrintCanPacket
 433              		.section	.text.ReadCAN,"ax",%progbits
 434              		.align	2
 435              		.global	ReadCAN
 436              		.code	16
 437              		.thumb_func
 438              		.type	ReadCAN, %function
 439              	ReadCAN:
 440              	.LFB40:
 190:main.c        **** 
 191:main.c        **** uint16_t ReadCAN(CANPacket *receivedPacket){
 441              		.loc 1 191 0
 442              		.cfi_startproc
 443              		@ args = 0, pretend = 0, frame = 8
 444              		@ frame_needed = 0, uses_anonymous_args = 0
 445              	.LVL40:
 446 0000 10B5     		push	{r4, lr}
 447              		.cfi_def_cfa_offset 8
 448              		.cfi_offset 4, -8
 449              		.cfi_offset 14, -4
 450 0002 82B0     		sub	sp, sp, #8
 451              		.cfi_def_cfa_offset 16
 452 0004 0400     		movs	r4, r0
 192:main.c        ****     volatile int error = PollAndReceiveCANPacket(receivedPacket);
 453              		.loc 1 192 0
 454 0006 FFF7FEFF 		bl	PollAndReceiveCANPacket
 455              	.LVL41:
 456 000a 0190     		str	r0, [sp, #4]
 193:main.c        ****     if(!error){
 457              		.loc 1 193 0
 458 000c 019B     		ldr	r3, [sp, #4]
 459 000e 002B     		cmp	r3, #0
 460 0010 04D1     		bne	.L31
 194:main.c        ****         #ifdef CAN_LED
 195:main.c        ****         CAN_LED_Write(LED_ON);
 196:main.c        ****         #endif
 197:main.c        ****         CAN_time_LED = 0;
 461              		.loc 1 197 0
 462 0012 0022     		movs	r2, #0
 463 0014 034B     		ldr	r3, .L32
 464 0016 1A70     		strb	r2, [r3]
 198:main.c        ****         return receivedPacket->data[0];
 465              		.loc 1 198 0
 466 0018 E078     		ldrb	r0, [r4, #3]
ARM GAS  C:\Users\kratz\AppData\Local\Temp\ccHmhsFf.s 			page 13


 467 001a 00E0     		b	.L30
 468              	.L31:
 199:main.c        ****     }
 200:main.c        ****     return NO_NEW_CAN_PACKET; //Means no Packet
 469              		.loc 1 200 0
 470 001c 0248     		ldr	r0, .L32+4
 471              	.L30:
 201:main.c        **** }
 472              		.loc 1 201 0
 473 001e 02B0     		add	sp, sp, #8
 474              		@ sp needed
 475              	.LVL42:
 476 0020 10BD     		pop	{r4, pc}
 477              	.L33:
 478 0022 C046     		.align	2
 479              	.L32:
 480 0024 00000000 		.word	.LANCHOR0
 481 0028 FFFF0000 		.word	65535
 482              		.cfi_endproc
 483              	.LFE40:
 484              		.size	ReadCAN, .-ReadCAN
 485              		.section	.text.DisplayErrorCode,"ax",%progbits
 486              		.align	2
 487              		.global	DisplayErrorCode
 488              		.code	16
 489              		.thumb_func
 490              		.type	DisplayErrorCode, %function
 491              	DisplayErrorCode:
 492              	.LFB41:
 202:main.c        **** 
 203:main.c        **** void DisplayErrorCode(uint8_t code) 
 204:main.c        **** {    
 493              		.loc 1 204 0
 494              		.cfi_startproc
 495              		@ args = 0, pretend = 0, frame = 0
 496              		@ frame_needed = 0, uses_anonymous_args = 0
 497              	.LVL43:
 498 0000 10B5     		push	{r4, lr}
 499              		.cfi_def_cfa_offset 8
 500              		.cfi_offset 4, -8
 501              		.cfi_offset 14, -4
 205:main.c        ****     #ifdef ERROR_LED
 206:main.c        ****     ERROR_LED_Write(LED_OFF);
 207:main.c        ****     #endif
 208:main.c        ****     #ifdef DEBUG_LED1   
 209:main.c        ****     DEBUG_LED_1_Write(LED_OFF);
 210:main.c        ****     #endif
 211:main.c        ****     #ifdef DEBUG_LED2
 212:main.c        ****     DEBUG_LED_2_Write(LED_OFF);
 213:main.c        ****     #endif
 214:main.c        ****     
 215:main.c        ****     ERRORTimeLED = 0;
 502              		.loc 1 215 0
 503 0002 0022     		movs	r2, #0
 504 0004 024B     		ldr	r3, .L35
 505 0006 9A70     		strb	r2, [r3, #2]
 216:main.c        ****     ERROR_LED_Write(LED_ON);
ARM GAS  C:\Users\kratz\AppData\Local\Temp\ccHmhsFf.s 			page 14


 506              		.loc 1 216 0
 507 0008 0020     		movs	r0, #0
 508              	.LVL44:
 509 000a FFF7FEFF 		bl	ERROR_LED_Write
 510              	.LVL45:
 217:main.c        ****     
 218:main.c        ****     #ifdef PRINT_MOTOR_ERROR
 219:main.c        ****         //TODO: PRINT ERROR
 220:main.c        ****     #endif
 221:main.c        **** 
 222:main.c        ****     switch(code)
 223:main.c        ****     {   
 224:main.c        ****         //case0: CAN Packet ERROR
 225:main.c        ****         case 1://Mode Error
 226:main.c        ****             #ifdef DEBUG_LED1
 227:main.c        ****             DEBUG_LED_1_Write(LED_ON);
 228:main.c        ****             #endif
 229:main.c        ****             break;
 230:main.c        ****         case 2:
 231:main.c        ****             #ifdef DEBUG_LED2
 232:main.c        ****             DEBUG_LED_2_Write(LED_ON);
 233:main.c        ****             #endif
 234:main.c        ****             break;
 235:main.c        ****         case 3:
 236:main.c        ****             #ifdef DEBUG_LED1
 237:main.c        ****             DEBUG_LED_1_Write(LED_ON);
 238:main.c        ****             #endif
 239:main.c        ****             #ifdef DEBUG_LED2
 240:main.c        ****             DEBUG_LED_2_Write(LED_ON);
 241:main.c        ****             #endif
 242:main.c        ****             break;
 243:main.c        ****         default:
 244:main.c        ****             //some error
 245:main.c        ****             break;
 246:main.c        ****     }
 247:main.c        **** 
 248:main.c        **** }
 511              		.loc 1 248 0
 512              		@ sp needed
 513 000e 10BD     		pop	{r4, pc}
 514              	.L36:
 515              		.align	2
 516              	.L35:
 517 0010 00000000 		.word	.LANCHOR0
 518              		.cfi_endproc
 519              	.LFE41:
 520              		.size	DisplayErrorCode, .-DisplayErrorCode
 521              		.comm	can_send,12,4
 522              		.comm	can_recieve,12,4
 523              		.global	CAN_check_delay
 524              		.global	drive
 525              		.global	address
 526              		.global	encoderTimeOut
 527              		.global	ignoreLimSw
 528              		.global	nextPWM
 529              		.comm	txData,100,4
 530              		.global	millidegreeTarget
ARM GAS  C:\Users\kratz\AppData\Local\Temp\ccHmhsFf.s 			page 15


 531              		.global	ERRORTimeLED
 532              		.global	CAN_time_LED
 533              		.section	.rodata.str1.4,"aMS",%progbits,1
 534              		.align	2
 535              	.LC6:
 536 0000 44697020 		.ascii	"Dip Addr: %x \015\012\000"
 536      41646472 
 536      3A202578 
 536      200D0A00 
 537              	.LC14:
 538 0010 42797465 		.ascii	"Byte%d %x   \000"
 538      25642025 
 538      78202020 
 538      00
 539 001d 000000   		.space	3
 540              	.LC17:
 541 0020 49443A25 		.ascii	"ID:%x %x %x\015\012\000"
 541      78202578 
 541      2025780D 
 541      0A00
 542              		.bss
 543              		.align	2
 544              		.set	.LANCHOR0,. + 0
 545              		.type	CAN_time_LED, %object
 546              		.size	CAN_time_LED, 1
 547              	CAN_time_LED:
 548 0000 00       		.space	1
 549              		.type	CAN_check_delay, %object
 550              		.size	CAN_check_delay, 1
 551              	CAN_check_delay:
 552 0001 00       		.space	1
 553              		.type	ERRORTimeLED, %object
 554              		.size	ERRORTimeLED, 1
 555              	ERRORTimeLED:
 556 0002 00       		.space	1
 557              		.type	encoderTimeOut, %object
 558              		.size	encoderTimeOut, 1
 559              	encoderTimeOut:
 560 0003 00       		.space	1
 561              		.type	ignoreLimSw, %object
 562              		.size	ignoreLimSw, 1
 563              	ignoreLimSw:
 564 0004 00       		.space	1
 565              		.type	address, %object
 566              		.size	address, 1
 567              	address:
 568 0005 00       		.space	1
 569              		.type	nextPWM, %object
 570              		.size	nextPWM, 2
 571              	nextPWM:
 572 0006 0000     		.space	2
 573              		.type	millidegreeTarget, %object
 574              		.size	millidegreeTarget, 4
 575              	millidegreeTarget:
 576 0008 00000000 		.space	4
 577              		.type	drive, %object
 578              		.size	drive, 1
ARM GAS  C:\Users\kratz\AppData\Local\Temp\ccHmhsFf.s 			page 16


 579              	drive:
 580 000c 00       		.space	1
 581              		.text
 582              	.Letext0:
 583              		.file 2 "c:\\program files (x86)\\cypress\\psoc creator\\4.4\\psoc creator\\import\\gnu\\arm\\5.4.
 584              		.file 3 "c:\\program files (x86)\\cypress\\psoc creator\\4.4\\psoc creator\\import\\gnu\\arm\\5.4.
 585              		.file 4 "..\\HindsightCAN/CANPacket.h"
 586              		.file 5 "Generated_Source\\PSoC4/cytypes.h"
 587              		.file 6 "Generated_Source\\PSoC4/Timer_PWM.h"
 588              		.file 7 "Motor_Unit_CAN.h"
 589              		.file 8 "MotorDrive.h"
 590              		.file 9 "Generated_Source\\PSoC4/Status_Reg_Switches.h"
 591              		.file 10 "..\\HindsightCAN/CANMotorUnit.h"
 592              		.file 11 "..\\HindsightCAN/Port.h"
 593              		.file 12 "Generated_Source\\PSoC4/Can_addr.h"
 594              		.file 13 "Generated_Source\\PSoC4/UART.h"
 595              		.file 14 "c:\\program files (x86)\\cypress\\psoc creator\\4.4\\psoc creator\\import\\gnu\\arm\\5.4
 596              		.file 15 "Generated_Source\\PSoC4/UART_SPI_UART.h"
 597              		.file 16 "Generated_Source\\PSoC4/QuadDec.h"
 598              		.file 17 "Generated_Source\\PSoC4/PWM_Motor.h"
 599              		.file 18 "Generated_Source\\PSoC4/isr_Limit_1.h"
 600              		.file 19 "Generated_Source\\PSoC4/isr_period_PWM.h"
 601              		.file 20 "Motor_Unit_FSM.h"
 602              		.file 21 "PositionPID.h"
 603              		.file 22 "Generated_Source\\PSoC4/ERROR_LED.h"