ARM GAS  C:\Users\kratz\AppData\Local\Temp\ccqvhFwC.s 			page 1


   1              		.syntax unified
   2              		.cpu cortex-m0
   3              		.fpu softvfp
   4              		.eabi_attribute 20, 1
   5              		.eabi_attribute 21, 1
   6              		.eabi_attribute 23, 3
   7              		.eabi_attribute 24, 1
   8              		.eabi_attribute 25, 1
   9              		.eabi_attribute 26, 1
  10              		.eabi_attribute 30, 1
  11              		.eabi_attribute 34, 0
  12              		.eabi_attribute 18, 4
  13              		.thumb
  14              		.syntax unified
  15              		.file	"Motor_Unit_CAN.c"
  16              		.text
  17              	.Ltext0:
  18              		.cfi_sections	.debug_frame
  19              		.section	.text.SendEncoderData,"ax",%progbits
  20              		.align	2
  21              		.global	SendEncoderData
  22              		.code	16
  23              		.thumb_func
  24              		.type	SendEncoderData, %function
  25              	SendEncoderData:
  26              	.LFB35:
  27              		.file 1 "Motor_Unit_CAN.c"
   1:Motor_Unit_CAN.c **** /* ========================================
   2:Motor_Unit_CAN.c ****  *
   3:Motor_Unit_CAN.c ****  * Copyright YOUR COMPANY, THE YEAR
   4:Motor_Unit_CAN.c ****  * All Rights Reserved
   5:Motor_Unit_CAN.c ****  * UNPUBLISHED, LICENSED SOFTWARE.
   6:Motor_Unit_CAN.c ****  *
   7:Motor_Unit_CAN.c ****  * CONFIDENTIAL AND PROPRIETARY INFORMATION
   8:Motor_Unit_CAN.c ****  * WHICH IS THE PROPERTY OF your company.
   9:Motor_Unit_CAN.c ****  *
  10:Motor_Unit_CAN.c ****  * ========================================
  11:Motor_Unit_CAN.c **** */
  12:Motor_Unit_CAN.c **** 
  13:Motor_Unit_CAN.c **** /* [] END OF FILE */
  14:Motor_Unit_CAN.c **** #include "main.h"
  15:Motor_Unit_CAN.c **** #include "Motor_Unit_CAN.h"
  16:Motor_Unit_CAN.c **** #include "Motor_Unit_FSM.h"
  17:Motor_Unit_CAN.c **** #include "MotorDrive.h"
  18:Motor_Unit_CAN.c **** #include "PositionPID.h"
  19:Motor_Unit_CAN.c **** 
  20:Motor_Unit_CAN.c **** #ifdef RGB_LED_ARRAY
  21:Motor_Unit_CAN.c **** #include "LED_Array.h"
  22:Motor_Unit_CAN.c **** extern const uint32 StripLights_CLUT[ ];
  23:Motor_Unit_CAN.c **** extern uint8_t address;
  24:Motor_Unit_CAN.c **** #endif
  25:Motor_Unit_CAN.c **** 
  26:Motor_Unit_CAN.c **** 
  27:Motor_Unit_CAN.c **** 
  28:Motor_Unit_CAN.c **** extern int16_t nextPWM;
  29:Motor_Unit_CAN.c **** extern int32_t millidegreeTarget;
  30:Motor_Unit_CAN.c **** 
ARM GAS  C:\Users\kratz\AppData\Local\Temp\ccqvhFwC.s 			page 2


  31:Motor_Unit_CAN.c **** void SendEncoderData (CANPacket *packetToSend){
  28              		.loc 1 31 0
  29              		.cfi_startproc
  30              		@ args = 0, pretend = 0, frame = 0
  31              		@ frame_needed = 0, uses_anonymous_args = 0
  32              	.LVL0:
  33 0000 10B5     		push	{r4, lr}
  34              		.cfi_def_cfa_offset 8
  35              		.cfi_offset 4, -8
  36              		.cfi_offset 14, -4
  37 0002 82B0     		sub	sp, sp, #8
  38              		.cfi_def_cfa_offset 16
  39 0004 0400     		movs	r4, r0
  32:Motor_Unit_CAN.c ****     AssembleTelemetryReportPacket(packetToSend, DEVICE_GROUP_JETSON, DEVICE_SERIAL_JETSON, 
  40              		.loc 1 32 0
  41 0006 FFF7FEFF 		bl	CurrentPositionMiliDegree
  42              	.LVL1:
  43 000a 0090     		str	r0, [sp]
  44 000c 0423     		movs	r3, #4
  45 000e 0122     		movs	r2, #1
  46 0010 0221     		movs	r1, #2
  47 0012 2000     		movs	r0, r4
  48 0014 FFF7FEFF 		bl	AssembleTelemetryReportPacket
  49              	.LVL2:
  33:Motor_Unit_CAN.c ****         PACKET_TELEMETRY_ANG_POSITION, CurrentPositionMiliDegree());
  34:Motor_Unit_CAN.c ****     SendCANPacket(packetToSend);
  50              		.loc 1 34 0
  51 0018 2000     		movs	r0, r4
  52 001a FFF7FEFF 		bl	SendCANPacket
  53              	.LVL3:
  35:Motor_Unit_CAN.c **** }
  54              		.loc 1 35 0
  55 001e 02B0     		add	sp, sp, #8
  56              		@ sp needed
  57              	.LVL4:
  58 0020 10BD     		pop	{r4, pc}
  59              		.cfi_endproc
  60              	.LFE35:
  61              		.size	SendEncoderData, .-SendEncoderData
  62 0022 C046     		.section	.text.NextStateFromCAN,"ax",%progbits
  63              		.align	2
  64              		.global	NextStateFromCAN
  65              		.code	16
  66              		.thumb_func
  67              		.type	NextStateFromCAN, %function
  68              	NextStateFromCAN:
  69              	.LFB36:
  36:Motor_Unit_CAN.c **** 
  37:Motor_Unit_CAN.c **** //Reads from CAN FIFO and changes the state and mode accordingly
  38:Motor_Unit_CAN.c **** void NextStateFromCAN(CANPacket *receivedPacket, CANPacket *packetToSend) {
  70              		.loc 1 38 0
  71              		.cfi_startproc
  72              		@ args = 0, pretend = 0, frame = 0
  73              		@ frame_needed = 0, uses_anonymous_args = 0
  74              	.LVL5:
  75 0000 70B5     		push	{r4, r5, r6, lr}
  76              		.cfi_def_cfa_offset 16
ARM GAS  C:\Users\kratz\AppData\Local\Temp\ccqvhFwC.s 			page 3


  77              		.cfi_offset 4, -16
  78              		.cfi_offset 5, -12
  79              		.cfi_offset 6, -8
  80              		.cfi_offset 14, -4
  81 0002 0500     		movs	r5, r0
  82 0004 0E00     		movs	r6, r1
  39:Motor_Unit_CAN.c ****     uint16_t packageID = ReadCAN(receivedPacket);
  83              		.loc 1 39 0
  84 0006 FFF7FEFF 		bl	ReadCAN
  85              	.LVL6:
  86 000a 0400     		movs	r4, r0
  87              	.LVL7:
  40:Motor_Unit_CAN.c ****     switch(packageID){
  88              		.loc 1 40 0
  89 000c 0728     		cmp	r0, #7
  90 000e 68D0     		beq	.L4
  91 0010 0CD8     		bhi	.L5
  92 0012 0428     		cmp	r0, #4
  93 0014 70D0     		beq	.L6
  94 0016 04D8     		bhi	.L7
  95 0018 0028     		cmp	r0, #0
  96 001a 18D0     		beq	.L8
  97 001c 0328     		cmp	r0, #3
  98 001e 37D0     		beq	.L9
  99 0020 C7E0     		b	.L3
 100              	.L7:
 101 0022 0528     		cmp	r0, #5
 102 0024 47D0     		beq	.L10
 103 0026 0628     		cmp	r0, #6
 104 0028 50D0     		beq	.L11
 105 002a C2E0     		b	.L3
 106              	.L5:
 107 002c 0D28     		cmp	r0, #13
 108 002e 00D1     		bne	.LCB79
 109 0030 AAE0     		b	.L12	@long jump
 110              	.LCB79:
 111 0032 05D8     		bhi	.L13
 112 0034 0A28     		cmp	r0, #10
 113 0036 79D0     		beq	.L14
 114 0038 0C28     		cmp	r0, #12
 115 003a 00D1     		bne	.LCB85
 116 003c 81E0     		b	.L15	@long jump
 117              	.LCB85:
 118 003e B8E0     		b	.L3
 119              	.L13:
 120 0040 F028     		cmp	r0, #240
 121 0042 00D1     		bne	.LCB91
 122 0044 A9E0     		b	.L16	@long jump
 123              	.LCB91:
 124 0046 F528     		cmp	r0, #245
 125 0048 00D1     		bne	.LCB93
 126 004a AEE0     		b	.L17	@long jump
 127              	.LCB93:
 128 004c B1E0     		b	.L3
 129              	.L8:
  41:Motor_Unit_CAN.c ****                     case(ID_MOTOR_UNIT_MODE_SEL):
  42:Motor_Unit_CAN.c ****                         if(GetModeFromPacket(receivedPacket) == MOTOR_UNIT_MODE_PWM) {
ARM GAS  C:\Users\kratz\AppData\Local\Temp\ccqvhFwC.s 			page 4


 130              		.loc 1 42 0
 131 004e 2800     		movs	r0, r5
 132              	.LVL8:
 133 0050 FFF7FEFF 		bl	GetModeFromPacket
 134              	.LVL9:
 135 0054 0028     		cmp	r0, #0
 136 0056 0AD1     		bne	.L18
  43:Motor_Unit_CAN.c ****                             set_PWM(0, 0, 0);
 137              		.loc 1 43 0
 138 0058 0022     		movs	r2, #0
 139 005a 0021     		movs	r1, #0
 140 005c FFF7FEFF 		bl	set_PWM
 141              	.LVL10:
  44:Motor_Unit_CAN.c ****                             #ifdef RGB_LED_ARRAY
  45:Motor_Unit_CAN.c ****                             StripLights_MemClear(StripLights_BLACK);
  46:Motor_Unit_CAN.c ****                             StripLights_Pixel(0, 0, get_color_packet(0,0,255));
  47:Motor_Unit_CAN.c ****                             StripLights_Trigger(1);
  48:Motor_Unit_CAN.c ****                             #endif
  49:Motor_Unit_CAN.c ****                             SetModeTo(MOTOR_UNIT_MODE_PWM);
 142              		.loc 1 49 0
 143 0060 0020     		movs	r0, #0
 144 0062 FFF7FEFF 		bl	SetModeTo
 145              	.LVL11:
  50:Motor_Unit_CAN.c ****                             SetStateTo(CHECK_CAN);
 146              		.loc 1 50 0
 147 0066 0220     		movs	r0, #2
 148 0068 FFF7FEFF 		bl	SetStateTo
 149              	.LVL12:
 150 006c B9E0     		b	.L2
 151              	.L18:
  51:Motor_Unit_CAN.c ****                         }
  52:Motor_Unit_CAN.c ****                         else if (GetModeFromPacket(receivedPacket) == MOTOR_UNIT_MODE_PID) {
 152              		.loc 1 52 0
 153 006e 2800     		movs	r0, r5
 154 0070 FFF7FEFF 		bl	GetModeFromPacket
 155              	.LVL13:
 156 0074 0128     		cmp	r0, #1
 157 0076 08D1     		bne	.L20
  53:Motor_Unit_CAN.c ****                             InitializePID();
 158              		.loc 1 53 0
 159 0078 FFF7FEFF 		bl	InitializePID
 160              	.LVL14:
  54:Motor_Unit_CAN.c ****                             #ifdef RGB_LED_ARRAY
  55:Motor_Unit_CAN.c ****                             StripLights_MemClear(StripLights_BLACK);
  56:Motor_Unit_CAN.c ****                             StripLights_Pixel(1, 0, get_color_packet(0,0,255));
  57:Motor_Unit_CAN.c ****                             StripLights_Trigger(1);
  58:Motor_Unit_CAN.c ****                             #endif
  59:Motor_Unit_CAN.c ****                             SetModeTo(MOTOR_UNIT_MODE_PID);
 161              		.loc 1 59 0
 162 007c 0120     		movs	r0, #1
 163 007e FFF7FEFF 		bl	SetModeTo
 164              	.LVL15:
  60:Motor_Unit_CAN.c ****                             SetStateTo(CHECK_CAN);
 165              		.loc 1 60 0
 166 0082 0220     		movs	r0, #2
 167 0084 FFF7FEFF 		bl	SetStateTo
 168              	.LVL16:
ARM GAS  C:\Users\kratz\AppData\Local\Temp\ccqvhFwC.s 			page 5


 169 0088 ABE0     		b	.L2
 170              	.L20:
  61:Motor_Unit_CAN.c ****                         } else {
  62:Motor_Unit_CAN.c ****                             GotoUninitState();
 171              		.loc 1 62 0
 172 008a FFF7FEFF 		bl	GotoUninitState
 173              	.LVL17:
 174 008e A8E0     		b	.L2
 175              	.LVL18:
 176              	.L9:
  63:Motor_Unit_CAN.c ****                         }
  64:Motor_Unit_CAN.c ****                         break;
  65:Motor_Unit_CAN.c ****                         
  66:Motor_Unit_CAN.c ****                     case(ID_MOTOR_UNIT_PWM_DIR_SET):
  67:Motor_Unit_CAN.c ****                         if(GetMode() == MOTOR_UNIT_MODE_PWM){
 177              		.loc 1 67 0
 178 0090 FFF7FEFF 		bl	GetMode
 179              	.LVL19:
 180 0094 0028     		cmp	r0, #0
 181 0096 07D1     		bne	.L21
  68:Motor_Unit_CAN.c ****                             SetStateTo(SET_PWM);
 182              		.loc 1 68 0
 183 0098 FFF7FEFF 		bl	SetStateTo
 184              	.LVL20:
  69:Motor_Unit_CAN.c ****                             nextPWM = GetPWMFromPacket(receivedPacket);
 185              		.loc 1 69 0
 186 009c 2800     		movs	r0, r5
 187 009e FFF7FEFF 		bl	GetPWMFromPacket
 188              	.LVL21:
 189 00a2 504B     		ldr	r3, .L30
 190 00a4 1880     		strh	r0, [r3]
 191 00a6 9CE0     		b	.L2
 192              	.L21:
  70:Motor_Unit_CAN.c ****                         } else {
  71:Motor_Unit_CAN.c ****                             SetStateTo(QUEUE_ERROR);
 193              		.loc 1 71 0
 194 00a8 0320     		movs	r0, #3
 195 00aa FFF7FEFF 		bl	SetStateTo
 196              	.LVL22:
  72:Motor_Unit_CAN.c ****                             DisplayErrorCode(MOTOR_ERROR_WRONG_MODE);
 197              		.loc 1 72 0
 198 00ae 0120     		movs	r0, #1
 199 00b0 FFF7FEFF 		bl	DisplayErrorCode
 200              	.LVL23:
 201 00b4 95E0     		b	.L2
 202              	.LVL24:
 203              	.L10:
  73:Motor_Unit_CAN.c ****                         }
  74:Motor_Unit_CAN.c ****                         break;
  75:Motor_Unit_CAN.c ****                         
  76:Motor_Unit_CAN.c ****                     case(ID_MOTOR_UNIT_PID_P_SET):
  77:Motor_Unit_CAN.c ****                         SetkPosition(GetPFromPacket(receivedPacket));
 204              		.loc 1 77 0
 205 00b6 2800     		movs	r0, r5
 206              	.LVL25:
 207 00b8 FFF7FEFF 		bl	GetPFromPacket
 208              	.LVL26:
ARM GAS  C:\Users\kratz\AppData\Local\Temp\ccqvhFwC.s 			page 6


 209 00bc FFF7FEFF 		bl	SetkPosition
 210              	.LVL27:
  78:Motor_Unit_CAN.c ****                         PositionConstIsSet();
 211              		.loc 1 78 0
 212 00c0 FFF7FEFF 		bl	PositionConstIsSet
 213              	.LVL28:
  79:Motor_Unit_CAN.c ****                         SetStateTo(CHECK_CAN);
 214              		.loc 1 79 0
 215 00c4 0220     		movs	r0, #2
 216 00c6 FFF7FEFF 		bl	SetStateTo
 217              	.LVL29:
  80:Motor_Unit_CAN.c ****                         break;
 218              		.loc 1 80 0
 219 00ca 8AE0     		b	.L2
 220              	.LVL30:
 221              	.L11:
  81:Motor_Unit_CAN.c ****                     
  82:Motor_Unit_CAN.c ****                     case(ID_MOTOR_UNIT_PID_I_SET):
  83:Motor_Unit_CAN.c ****                         SetkIntegral(GetIFromPacket(receivedPacket));
 222              		.loc 1 83 0
 223 00cc 2800     		movs	r0, r5
 224              	.LVL31:
 225 00ce FFF7FEFF 		bl	GetIFromPacket
 226              	.LVL32:
 227 00d2 FFF7FEFF 		bl	SetkIntegral
 228              	.LVL33:
  84:Motor_Unit_CAN.c ****                         IntegralConstIsSet();
 229              		.loc 1 84 0
 230 00d6 FFF7FEFF 		bl	IntegralConstIsSet
 231              	.LVL34:
  85:Motor_Unit_CAN.c ****                         SetStateTo(CHECK_CAN);
 232              		.loc 1 85 0
 233 00da 0220     		movs	r0, #2
 234 00dc FFF7FEFF 		bl	SetStateTo
 235              	.LVL35:
  86:Motor_Unit_CAN.c ****                         break;
 236              		.loc 1 86 0
 237 00e0 7FE0     		b	.L2
 238              	.LVL36:
 239              	.L4:
  87:Motor_Unit_CAN.c ****                     
  88:Motor_Unit_CAN.c ****                     case(ID_MOTOR_UNIT_PID_D_SET):
  89:Motor_Unit_CAN.c ****                         SetkDerivative(GetDFromPacket(receivedPacket));
 240              		.loc 1 89 0
 241 00e2 2800     		movs	r0, r5
 242              	.LVL37:
 243 00e4 FFF7FEFF 		bl	GetDFromPacket
 244              	.LVL38:
 245 00e8 FFF7FEFF 		bl	SetkDerivative
 246              	.LVL39:
  90:Motor_Unit_CAN.c ****                         DerivativeConstIsSet();
 247              		.loc 1 90 0
 248 00ec FFF7FEFF 		bl	DerivativeConstIsSet
 249              	.LVL40:
  91:Motor_Unit_CAN.c ****                         SetStateTo(CHECK_CAN);
 250              		.loc 1 91 0
 251 00f0 0220     		movs	r0, #2
ARM GAS  C:\Users\kratz\AppData\Local\Temp\ccqvhFwC.s 			page 7


 252 00f2 FFF7FEFF 		bl	SetStateTo
 253              	.LVL41:
  92:Motor_Unit_CAN.c ****                         break;
 254              		.loc 1 92 0
 255 00f6 74E0     		b	.L2
 256              	.LVL42:
 257              	.L6:
  93:Motor_Unit_CAN.c ****                     
  94:Motor_Unit_CAN.c ****                     case(ID_MOTOR_UNIT_PID_POS_TGT_SET):
  95:Motor_Unit_CAN.c ****                         if(GetMode() == MOTOR_UNIT_MODE_PID && PIDconstsSet()) {//&& PID values set
 258              		.loc 1 95 0
 259 00f8 FFF7FEFF 		bl	GetMode
 260              	.LVL43:
 261 00fc 0128     		cmp	r0, #1
 262 00fe 0ED1     		bne	.L22
 263              		.loc 1 95 0 is_stmt 0 discriminator 1
 264 0100 FFF7FEFF 		bl	PIDconstsSet
 265              	.LVL44:
 266 0104 0028     		cmp	r0, #0
 267 0106 0AD0     		beq	.L22
  96:Motor_Unit_CAN.c ****                             EnablePID();
 268              		.loc 1 96 0 is_stmt 1
 269 0108 FFF7FEFF 		bl	EnablePID
 270              	.LVL45:
  97:Motor_Unit_CAN.c ****                             millidegreeTarget = GetPIDTargetFromPacket(receivedPacket);
 271              		.loc 1 97 0
 272 010c 2800     		movs	r0, r5
 273 010e FFF7FEFF 		bl	GetPIDTargetFromPacket
 274              	.LVL46:
 275 0112 354B     		ldr	r3, .L30+4
 276 0114 1860     		str	r0, [r3]
  98:Motor_Unit_CAN.c ****                             SetStateTo(CALC_PID);
 277              		.loc 1 98 0
 278 0116 0120     		movs	r0, #1
 279 0118 FFF7FEFF 		bl	SetStateTo
 280              	.LVL47:
 281 011c 61E0     		b	.L2
 282              	.L22:
  99:Motor_Unit_CAN.c ****                         } else {
 100:Motor_Unit_CAN.c ****                             SetStateTo(QUEUE_ERROR);
 283              		.loc 1 100 0
 284 011e 0320     		movs	r0, #3
 285 0120 FFF7FEFF 		bl	SetStateTo
 286              	.LVL48:
 101:Motor_Unit_CAN.c ****                             DisplayErrorCode(MOTOR_ERROR_WRONG_MODE);
 287              		.loc 1 101 0
 288 0124 0120     		movs	r0, #1
 289 0126 FFF7FEFF 		bl	DisplayErrorCode
 290              	.LVL49:
 291 012a 5AE0     		b	.L2
 292              	.LVL50:
 293              	.L14:
 102:Motor_Unit_CAN.c ****                         }
 103:Motor_Unit_CAN.c ****                         break;
 104:Motor_Unit_CAN.c ****                      
 105:Motor_Unit_CAN.c ****                     case(ID_MOTOR_UNIT_ENC_PPJR_SET):
 106:Motor_Unit_CAN.c ****                         SetkPPJR(GetEncoderPPJRFromPacket(receivedPacket));
ARM GAS  C:\Users\kratz\AppData\Local\Temp\ccqvhFwC.s 			page 8


 294              		.loc 1 106 0
 295 012c 2800     		movs	r0, r5
 296              	.LVL51:
 297 012e FFF7FEFF 		bl	GetEncoderPPJRFromPacket
 298              	.LVL52:
 299 0132 FFF7FEFF 		bl	SetkPPJR
 300              	.LVL53:
 107:Motor_Unit_CAN.c ****                         PPJRConstIsSet();
 301              		.loc 1 107 0
 302 0136 FFF7FEFF 		bl	PPJRConstIsSet
 303              	.LVL54:
 108:Motor_Unit_CAN.c ****                         SetStateTo(CHECK_CAN);
 304              		.loc 1 108 0
 305 013a 0220     		movs	r0, #2
 306 013c FFF7FEFF 		bl	SetStateTo
 307              	.LVL55:
 109:Motor_Unit_CAN.c ****                         break;
 308              		.loc 1 109 0
 309 0140 4FE0     		b	.L2
 310              	.LVL56:
 311              	.L15:
 110:Motor_Unit_CAN.c ****                     /*
 111:Motor_Unit_CAN.c ****                     case(ID_MOTOR_UNIT_MAX_JNT_REV_SET):
 112:Motor_Unit_CAN.c ****                         break;
 113:Motor_Unit_CAN.c ****                     */
 114:Motor_Unit_CAN.c ****                     case(ID_MOTOR_UNIT_ENC_INIT):
 115:Motor_Unit_CAN.c ****                         if(GetMode() == MOTOR_UNIT_MODE_PID){ //turn off and clear PID Loop if enco
 312              		.loc 1 115 0
 313 0142 FFF7FEFF 		bl	GetMode
 314              	.LVL57:
 315 0146 0128     		cmp	r0, #1
 316 0148 08D1     		bne	.L23
 116:Motor_Unit_CAN.c ****                             set_PWM(0, 0, 0);
 317              		.loc 1 116 0
 318 014a 0022     		movs	r2, #0
 319 014c 0021     		movs	r1, #0
 320 014e 0020     		movs	r0, #0
 321 0150 FFF7FEFF 		bl	set_PWM
 322              	.LVL58:
 117:Motor_Unit_CAN.c ****                             ClearPIDProgress();
 323              		.loc 1 117 0
 324 0154 FFF7FEFF 		bl	ClearPIDProgress
 325              	.LVL59:
 118:Motor_Unit_CAN.c ****                             DisablePID();
 326              		.loc 1 118 0
 327 0158 FFF7FEFF 		bl	DisablePID
 328              	.LVL60:
 329              	.L23:
 119:Motor_Unit_CAN.c ****                         }
 120:Motor_Unit_CAN.c ****                         if(GetEncoderZeroFromPacket(receivedPacket)) {
 330              		.loc 1 120 0
 331 015c 2800     		movs	r0, r5
 332 015e FFF7FEFF 		bl	GetEncoderZeroFromPacket
 333              	.LVL61:
 334 0162 0028     		cmp	r0, #0
 335 0164 02D0     		beq	.L24
 121:Motor_Unit_CAN.c ****                             QuadDec_SetCounter(0);                        
ARM GAS  C:\Users\kratz\AppData\Local\Temp\ccqvhFwC.s 			page 9


 336              		.loc 1 121 0
 337 0166 0020     		movs	r0, #0
 338 0168 FFF7FEFF 		bl	QuadDec_SetCounter
 339              	.LVL62:
 340              	.L24:
 122:Motor_Unit_CAN.c ****                         }
 123:Motor_Unit_CAN.c ****                         if(GetEncoderDirectionFromPacket(receivedPacket)) {
 341              		.loc 1 123 0
 342 016c 2800     		movs	r0, r5
 343 016e FFF7FEFF 		bl	GetEncoderDirectionFromPacket
 344              	.LVL63:
 345 0172 0028     		cmp	r0, #0
 346 0174 02D0     		beq	.L25
 124:Motor_Unit_CAN.c ****                             SetEncoderDirReverse();
 347              		.loc 1 124 0
 348 0176 FFF7FEFF 		bl	SetEncoderDirReverse
 349              	.LVL64:
 350 017a 01E0     		b	.L26
 351              	.L25:
 125:Motor_Unit_CAN.c ****                         } else {
 126:Motor_Unit_CAN.c ****                             SetEncoderDirDefault();
 352              		.loc 1 126 0
 353 017c FFF7FEFF 		bl	SetEncoderDirDefault
 354              	.LVL65:
 355              	.L26:
 127:Motor_Unit_CAN.c ****                         }
 128:Motor_Unit_CAN.c ****                         SetStateTo(CHECK_CAN);
 356              		.loc 1 128 0
 357 0180 0220     		movs	r0, #2
 358 0182 FFF7FEFF 		bl	SetStateTo
 359              	.LVL66:
 129:Motor_Unit_CAN.c ****                         break;
 360              		.loc 1 129 0
 361 0186 2CE0     		b	.L2
 362              	.LVL67:
 363              	.L12:
 130:Motor_Unit_CAN.c ****                     case(ID_MOTOR_UNIT_MAX_PID_PWM):
 131:Motor_Unit_CAN.c ****                         SetMaxPIDPWM(GetMaxPIDPWMFromPacket(receivedPacket));
 364              		.loc 1 131 0
 365 0188 2800     		movs	r0, r5
 366              	.LVL68:
 367 018a FFF7FEFF 		bl	GetMaxPIDPWMFromPacket
 368              	.LVL69:
 369 018e FFF7FEFF 		bl	SetMaxPIDPWM
 370              	.LVL70:
 132:Motor_Unit_CAN.c ****                         SetStateTo(CHECK_CAN);
 371              		.loc 1 132 0
 372 0192 0220     		movs	r0, #2
 373 0194 FFF7FEFF 		bl	SetStateTo
 374              	.LVL71:
 133:Motor_Unit_CAN.c ****                         break;    
 375              		.loc 1 133 0
 376 0198 23E0     		b	.L2
 377              	.LVL72:
 378              	.L16:
 134:Motor_Unit_CAN.c ****                     
 135:Motor_Unit_CAN.c ****                     // Common Packets 
ARM GAS  C:\Users\kratz\AppData\Local\Temp\ccqvhFwC.s 			page 10


 136:Motor_Unit_CAN.c ****                     case(ID_ESTOP):
 137:Motor_Unit_CAN.c ****                         set_PWM(0, 0, 0);
 379              		.loc 1 137 0
 380 019a 0022     		movs	r2, #0
 381 019c 0021     		movs	r1, #0
 382 019e 0020     		movs	r0, #0
 383              	.LVL73:
 384 01a0 FFF7FEFF 		bl	set_PWM
 385              	.LVL74:
 138:Motor_Unit_CAN.c ****                         GotoUninitState();
 386              		.loc 1 138 0
 387 01a4 FFF7FEFF 		bl	GotoUninitState
 388              	.LVL75:
 139:Motor_Unit_CAN.c ****                         #ifdef RGB_LED_ARRAY
 140:Motor_Unit_CAN.c ****                         StripLights_MemClear(StripLights_BLACK);
 141:Motor_Unit_CAN.c ****                         StripLights_Pixel(0, 0, get_color_packet(0,0,255));
 142:Motor_Unit_CAN.c ****                         StripLights_Trigger(1);
 143:Motor_Unit_CAN.c ****                         #endif
 144:Motor_Unit_CAN.c ****                         break;
 389              		.loc 1 144 0
 390 01a8 1BE0     		b	.L2
 391              	.LVL76:
 392              	.L17:
 145:Motor_Unit_CAN.c ****                     
 146:Motor_Unit_CAN.c ****                     case(ID_TELEMETRY_PULL):
 147:Motor_Unit_CAN.c ****                         //AssembleChipTypeReportPacket(packetToSend, GetSenderDeviceGroupCode(recei
 148:Motor_Unit_CAN.c ****                         //    GetSenderDeviceSerialNumber(receivedPacket));
 149:Motor_Unit_CAN.c ****                         //SendCANPacket(packetToSend);
 150:Motor_Unit_CAN.c **** 			SendEncoderData(packetToSend);
 393              		.loc 1 150 0
 394 01aa 3000     		movs	r0, r6
 395              	.LVL77:
 396 01ac FFF7FEFF 		bl	SendEncoderData
 397              	.LVL78:
 151:Motor_Unit_CAN.c ****                         break;
 398              		.loc 1 151 0
 399 01b0 17E0     		b	.L2
 400              	.LVL79:
 401              	.L3:
 152:Motor_Unit_CAN.c **** 
 153:Motor_Unit_CAN.c ****                         
 154:Motor_Unit_CAN.c ****                         /*
 155:Motor_Unit_CAN.c ****                     case(ID_LED_COLOR):
 156:Motor_Unit_CAN.c ****                         break;
 157:Motor_Unit_CAN.c ****                         */
 158:Motor_Unit_CAN.c ****                         
 159:Motor_Unit_CAN.c ****                         
 160:Motor_Unit_CAN.c ****                     default://for 0xFF/no packets or Non recognized Packets
 161:Motor_Unit_CAN.c ****                         
 162:Motor_Unit_CAN.c ****                         if(GetMode() == MOTOR_UNIT_MODE_PID){ //need to check if values set;
 402              		.loc 1 162 0
 403 01b2 FFF7FEFF 		bl	GetMode
 404              	.LVL80:
 405 01b6 0128     		cmp	r0, #1
 406 01b8 02D1     		bne	.L27
 163:Motor_Unit_CAN.c ****                             SetStateTo(CALC_PID);
 407              		.loc 1 163 0
ARM GAS  C:\Users\kratz\AppData\Local\Temp\ccqvhFwC.s 			page 11


 408 01ba FFF7FEFF 		bl	SetStateTo
 409              	.LVL81:
 410 01be 0AE0     		b	.L28
 411              	.L27:
 164:Motor_Unit_CAN.c ****                         } else if(GetMode() == MOTOR_UNIT_MODE_PWM){ //skips PWM state to not reset
 412              		.loc 1 164 0
 413 01c0 FFF7FEFF 		bl	GetMode
 414              	.LVL82:
 415 01c4 0028     		cmp	r0, #0
 416 01c6 03D1     		bne	.L29
 165:Motor_Unit_CAN.c ****                             SetStateTo(CHECK_CAN);
 417              		.loc 1 165 0
 418 01c8 0230     		adds	r0, r0, #2
 419 01ca FFF7FEFF 		bl	SetStateTo
 420              	.LVL83:
 421 01ce 02E0     		b	.L28
 422              	.L29:
 166:Motor_Unit_CAN.c ****                         } else {
 167:Motor_Unit_CAN.c ****                             SetStateTo(CHECK_CAN);
 423              		.loc 1 167 0
 424 01d0 0220     		movs	r0, #2
 425 01d2 FFF7FEFF 		bl	SetStateTo
 426              	.LVL84:
 427              	.L28:
 168:Motor_Unit_CAN.c ****                         }
 169:Motor_Unit_CAN.c ****                         
 170:Motor_Unit_CAN.c ****                         //recieved Packet with Non Valid ID
 171:Motor_Unit_CAN.c ****                         if(packageID != NO_NEW_CAN_PACKET) {
 428              		.loc 1 171 0
 429 01d6 054B     		ldr	r3, .L30+8
 430 01d8 9C42     		cmp	r4, r3
 431 01da 02D0     		beq	.L2
 172:Motor_Unit_CAN.c ****                             DisplayErrorCode(MOTOR_ERROR_INVALID_PACKET);
 432              		.loc 1 172 0
 433 01dc 0020     		movs	r0, #0
 434 01de FFF7FEFF 		bl	DisplayErrorCode
 435              	.LVL85:
 436              	.L2:
 173:Motor_Unit_CAN.c ****                         }
 174:Motor_Unit_CAN.c ****                         break;
 175:Motor_Unit_CAN.c ****                 }
 176:Motor_Unit_CAN.c **** }...
 437              		.loc 1 176 0
 438              		@ sp needed
 439              	.LVL86:
 440              	.LVL87:
 441              	.LVL88:
 442 01e2 70BD     		pop	{r4, r5, r6, pc}
 443              	.L31:
 444              		.align	2
 445              	.L30:
 446 01e4 00000000 		.word	nextPWM
 447 01e8 00000000 		.word	millidegreeTarget
 448 01ec FFFF0000 		.word	65535
 449              		.cfi_endproc
 450              	.LFE36:
 451              		.size	NextStateFromCAN, .-NextStateFromCAN
ARM GAS  C:\Users\kratz\AppData\Local\Temp\ccqvhFwC.s 			page 12


 452              		.text
 453              	.Letext0:
 454              		.file 2 "c:\\program files (x86)\\cypress\\psoc creator\\4.4\\psoc creator\\import\\gnu\\arm\\5.4.
 455              		.file 3 "c:\\program files (x86)\\cypress\\psoc creator\\4.4\\psoc creator\\import\\gnu\\arm\\5.4.
 456              		.file 4 "CANPacket.h"
 457              		.file 5 "PositionPID.h"
 458              		.file 6 "CANCommon.h"
 459              		.file 7 "Port.h"
 460              		.file 8 "main.h"
 461              		.file 9 "CANMotorUnit.h"
 462              		.file 10 "MotorDrive.h"
 463              		.file 11 "Motor_Unit_FSM.h"
 464              		.file 12 "Generated_Source\\PSoC4/QuadDec.h"