ARM GAS  C:\Users\kratz\AppData\Local\Temp\ccdmGb0v.s 			page 1


   1              		.syntax unified
   2              		.cpu cortex-m0
   3              		.fpu softvfp
   4              		.eabi_attribute 20, 1
   5              		.eabi_attribute 21, 1
   6              		.eabi_attribute 23, 3
   7              		.eabi_attribute 24, 1
   8              		.eabi_attribute 25, 1
   9              		.eabi_attribute 26, 1
  10              		.eabi_attribute 30, 1
  11              		.eabi_attribute 34, 0
  12              		.eabi_attribute 18, 4
  13              		.thumb
  14              		.syntax unified
  15              		.file	"PCA9685.c"
  16              		.text
  17              	.Ltext0:
  18              		.cfi_sections	.debug_frame
  19              		.section	.text.TurnOnTimeL,"ax",%progbits
  20              		.align	2
  21              		.global	TurnOnTimeL
  22              		.code	16
  23              		.thumb_func
  24              		.type	TurnOnTimeL, %function
  25              	TurnOnTimeL:
  26              	.LFB36:
  27              		.file 1 "PCA9685.c"
   1:PCA9685.c     **** /* ========================================
   2:PCA9685.c     ****  *
   3:PCA9685.c     ****  * Driver for PCA9685
   4:PCA9685.c     ****  * 
   5:PCA9685.c     ****  * Name I2C Block in Top Design "I2C"
   6:PCA9685.c     ****  *
   7:PCA9685.c     ****  * Written by Dupri Chipman and Davis Sauer
   8:PCA9685.c     ****  * 
   9:PCA9685.c     ****  *
  10:PCA9685.c     ****  * ========================================
  11:PCA9685.c     **** */
  12:PCA9685.c     **** 
  13:PCA9685.c     **** #include "project.h"
  14:PCA9685.c     **** #include "PCA9685.h"
  15:PCA9685.c     **** 
  16:PCA9685.c     **** void pca_init(){
  17:PCA9685.c     ****     I2C_Start();
  18:PCA9685.c     ****     I2C_Enable();
  19:PCA9685.c     ****     uint8 mode_buf[2] = {0,0b10000000};
  20:PCA9685.c     ****     writeBuffer(mode_buf, PCA9685ADDY);
  21:PCA9685.c     ****     
  22:PCA9685.c     ****     uint8 freq_buf[2] = {254, 121};
  23:PCA9685.c     ****     writeBuffer(freq_buf, PCA9685ADDY);
  24:PCA9685.c     **** }
  25:PCA9685.c     **** 
  26:PCA9685.c     **** /*Writes a single byte over i2c*/
  27:PCA9685.c     **** void writeByte(uint8 chip_register, uint8 value){
  28:PCA9685.c     ****      uint8 buf[2] = {chip_register, value};
  29:PCA9685.c     ****      writeBuffer(buf, PCA9685ADDY);
  30:PCA9685.c     **** }
ARM GAS  C:\Users\kratz\AppData\Local\Temp\ccdmGb0v.s 			page 2


  31:PCA9685.c     **** 
  32:PCA9685.c     **** /*Casting delayTime as uint8_t gets rid of the four left most significant bits*/
  33:PCA9685.c     **** uint8 TurnOnTimeL(){
  28              		.loc 1 33 0
  29              		.cfi_startproc
  30              		@ args = 0, pretend = 0, frame = 0
  31              		@ frame_needed = 0, uses_anonymous_args = 0
  32              		@ link register save eliminated.
  33              	.LVL0:
  34:PCA9685.c     ****            int delayTime = DELAYTIME; /*This ammounts to 41 ticks before turn on*/
  35:PCA9685.c     ****            //dutyCycle = (4095*dutyCycle)/100;
  36:PCA9685.c     ****             delayTime = (4095*delayTime)/100 - 1;
  37:PCA9685.c     ****         return delayTime;
  38:PCA9685.c     **** }
  34              		.loc 1 38 0
  35 0000 2720     		movs	r0, #39
  36              		@ sp needed
  37 0002 7047     		bx	lr
  38              		.cfi_endproc
  39              	.LFE36:
  40              		.size	TurnOnTimeL, .-TurnOnTimeL
  41              		.section	.text.TurnOnTimeH,"ax",%progbits
  42              		.align	2
  43              		.global	TurnOnTimeH
  44              		.code	16
  45              		.thumb_func
  46              		.type	TurnOnTimeH, %function
  47              	TurnOnTimeH:
  48              	.LFB37:
  39:PCA9685.c     **** 
  40:PCA9685.c     **** /*Shifting to the right keeps the four most signifcant bits but gets rid of 8 least significant dig
  41:PCA9685.c     **** uint8 TurnOnTimeH(){
  49              		.loc 1 41 0
  50              		.cfi_startproc
  51              		@ args = 0, pretend = 0, frame = 0
  52              		@ frame_needed = 0, uses_anonymous_args = 0
  53              		@ link register save eliminated.
  54              	.LVL1:
  42:PCA9685.c     ****     int delayTime = DELAYTIME;
  43:PCA9685.c     ****     delayTime = (4095*delayTime)/100 - 1;
  44:PCA9685.c     ****     delayTime = delayTime >> 8;
  45:PCA9685.c     ****         return delayTime;
  46:PCA9685.c     **** }
  55              		.loc 1 46 0
  56 0000 0020     		movs	r0, #0
  57              		@ sp needed
  58 0002 7047     		bx	lr
  59              		.cfi_endproc
  60              	.LFE37:
  61              		.size	TurnOnTimeH, .-TurnOnTimeH
  62              		.global	__aeabi_idiv
  63              		.section	.text.TurnOffTimeL,"ax",%progbits
  64              		.align	2
  65              		.global	TurnOffTimeL
  66              		.code	16
  67              		.thumb_func
  68              		.type	TurnOffTimeL, %function
ARM GAS  C:\Users\kratz\AppData\Local\Temp\ccdmGb0v.s 			page 3


  69              	TurnOffTimeL:
  70              	.LFB38:
  47:PCA9685.c     **** 
  48:PCA9685.c     **** uint8 TurnOffTimeL(int dutyCycle){
  71              		.loc 1 48 0
  72              		.cfi_startproc
  73              		@ args = 0, pretend = 0, frame = 0
  74              		@ frame_needed = 0, uses_anonymous_args = 0
  75              	.LVL2:
  76 0000 10B5     		push	{r4, lr}
  77              		.cfi_def_cfa_offset 8
  78              		.cfi_offset 4, -8
  79              		.cfi_offset 14, -4
  80              	.LVL3:
  49:PCA9685.c     ****     int delayTime = DELAYTIME;
  50:PCA9685.c     ****     int offTime=0;
  51:PCA9685.c     ****     if(delayTime+dutyCycle<=100){
  81              		.loc 1 51 0
  82 0002 431C     		adds	r3, r0, #1
  83 0004 642B     		cmp	r3, #100
  84 0006 06DC     		bgt	.L4
  85              	.LVL4:
  52:PCA9685.c     ****     delayTime = (4095*delayTime)/100 - 1;
  53:PCA9685.c     ****     dutyCycle = (4095*dutyCycle)/100;
  86              		.loc 1 53 0
  87 0008 0303     		lsls	r3, r0, #12
  88 000a 181A     		subs	r0, r3, r0
  89              	.LVL5:
  90 000c 6421     		movs	r1, #100
  91 000e FFF7FEFF 		bl	__aeabi_idiv
  92              	.LVL6:
  54:PCA9685.c     ****     offTime = delayTime + dutyCycle;
  93              		.loc 1 54 0
  94 0012 2730     		adds	r0, r0, #39
  95              	.LVL7:
  96 0014 07E0     		b	.L5
  97              	.LVL8:
  98              	.L4:
  55:PCA9685.c     ****     } else {
  56:PCA9685.c     ****     delayTime = (4095*delayTime)/100 - 1;
  57:PCA9685.c     ****     dutyCycle = (4095*dutyCycle)/100;
  99              		.loc 1 57 0
 100 0016 0303     		lsls	r3, r0, #12
 101 0018 181A     		subs	r0, r3, r0
 102              	.LVL9:
 103 001a 6421     		movs	r1, #100
 104 001c FFF7FEFF 		bl	__aeabi_idiv
 105              	.LVL10:
  58:PCA9685.c     ****     offTime = delayTime + dutyCycle - 4096;
 106              		.loc 1 58 0
 107 0020 024B     		ldr	r3, .L6
 108 0022 9C46     		mov	ip, r3
 109 0024 6044     		add	r0, r0, ip
 110              	.LVL11:
 111              	.L5:
  59:PCA9685.c     ****     offTime = offTime;
  60:PCA9685.c     ****     }
ARM GAS  C:\Users\kratz\AppData\Local\Temp\ccdmGb0v.s 			page 4


  61:PCA9685.c     ****        return offTime;}
 112              		.loc 1 61 0
 113 0026 C0B2     		uxtb	r0, r0
 114              	.LVL12:
 115              		@ sp needed
 116 0028 10BD     		pop	{r4, pc}
 117              	.L7:
 118 002a C046     		.align	2
 119              	.L6:
 120 002c 27F0FFFF 		.word	-4057
 121              		.cfi_endproc
 122              	.LFE38:
 123              		.size	TurnOffTimeL, .-TurnOffTimeL
 124              		.section	.text.TurnOffTimeH,"ax",%progbits
 125              		.align	2
 126              		.global	TurnOffTimeH
 127              		.code	16
 128              		.thumb_func
 129              		.type	TurnOffTimeH, %function
 130              	TurnOffTimeH:
 131              	.LFB39:
  62:PCA9685.c     **** 
  63:PCA9685.c     **** uint8 TurnOffTimeH(int dutyCycle){
 132              		.loc 1 63 0
 133              		.cfi_startproc
 134              		@ args = 0, pretend = 0, frame = 0
 135              		@ frame_needed = 0, uses_anonymous_args = 0
 136              	.LVL13:
 137 0000 10B5     		push	{r4, lr}
 138              		.cfi_def_cfa_offset 8
 139              		.cfi_offset 4, -8
 140              		.cfi_offset 14, -4
 141              	.LVL14:
  64:PCA9685.c     ****     int delayTime = DELAYTIME;
  65:PCA9685.c     ****     int offTime = 0; //initialized because program giving a warning
  66:PCA9685.c     ****     if(delayTime+dutyCycle<=100){
 142              		.loc 1 66 0
 143 0002 431C     		adds	r3, r0, #1
 144 0004 642B     		cmp	r3, #100
 145 0006 06DC     		bgt	.L9
 146              	.LVL15:
  67:PCA9685.c     ****     delayTime = (4095*delayTime)/100 - 1;
  68:PCA9685.c     ****     dutyCycle = (4095*dutyCycle)/100;
 147              		.loc 1 68 0
 148 0008 0303     		lsls	r3, r0, #12
 149 000a 181A     		subs	r0, r3, r0
 150              	.LVL16:
 151 000c 6421     		movs	r1, #100
 152 000e FFF7FEFF 		bl	__aeabi_idiv
 153              	.LVL17:
  69:PCA9685.c     ****     offTime = delayTime + dutyCycle;
 154              		.loc 1 69 0
 155 0012 2730     		adds	r0, r0, #39
 156              	.LVL18:
 157 0014 05E0     		b	.L10
 158              	.LVL19:
 159              	.L9:
ARM GAS  C:\Users\kratz\AppData\Local\Temp\ccdmGb0v.s 			page 5


  70:PCA9685.c     ****     } else {
  71:PCA9685.c     ****     delayTime = (4095*delayTime)/100 - 1;
  72:PCA9685.c     ****     dutyCycle = (4095*dutyCycle)/100;
 160              		.loc 1 72 0
 161 0016 0303     		lsls	r3, r0, #12
 162 0018 181A     		subs	r0, r3, r0
 163              	.LVL20:
 164 001a 6421     		movs	r1, #100
 165 001c FFF7FEFF 		bl	__aeabi_idiv
 166              	.LVL21:
  73:PCA9685.c     ****     offTime = delayTime + dutyCycle - offTime;
 167              		.loc 1 73 0
 168 0020 2730     		adds	r0, r0, #39
 169              	.LVL22:
 170              	.L10:
  74:PCA9685.c     ****     }
  75:PCA9685.c     ****        return offTime >> 8;}
 171              		.loc 1 75 0
 172 0022 0012     		asrs	r0, r0, #8
 173              	.LVL23:
 174 0024 C0B2     		uxtb	r0, r0
 175              		@ sp needed
 176 0026 10BD     		pop	{r4, pc}
 177              		.cfi_endproc
 178              	.LFE39:
 179              		.size	TurnOffTimeH, .-TurnOffTimeH
 180              		.section	.text.writeBuffer,"ax",%progbits
 181              		.align	2
 182              		.global	writeBuffer
 183              		.code	16
 184              		.thumb_func
 185              		.type	writeBuffer, %function
 186              	writeBuffer:
 187              	.LFB40:
  76:PCA9685.c     **** 
  77:PCA9685.c     **** uint32 writeBuffer(uint8 *buff, uint32_t PCA9685Address){
 188              		.loc 1 77 0
 189              		.cfi_startproc
 190              		@ args = 0, pretend = 0, frame = 0
 191              		@ frame_needed = 0, uses_anonymous_args = 0
 192              	.LVL24:
 193 0000 70B5     		push	{r4, r5, r6, lr}
 194              		.cfi_def_cfa_offset 16
 195              		.cfi_offset 4, -16
 196              		.cfi_offset 5, -12
 197              		.cfi_offset 6, -8
 198              		.cfi_offset 14, -4
 199 0002 0500     		movs	r5, r0
 200 0004 0C00     		movs	r4, r1
 201              	.LVL25:
  78:PCA9685.c     ****      uint32 status = TRANSFER_ERROR;
  79:PCA9685.c     ****     
  80:PCA9685.c     ****     (void) I2C_I2CMasterClearStatus();
 202              		.loc 1 80 0
 203 0006 FFF7FEFF 		bl	I2C_I2CMasterClearStatus
 204              	.LVL26:
  81:PCA9685.c     ****          if( I2C_I2C_MSTR_NO_ERROR ==  I2C_I2CMasterWriteBuf(PCA9685Address, buff,
ARM GAS  C:\Users\kratz\AppData\Local\Temp\ccdmGb0v.s 			page 6


 205              		.loc 1 81 0
 206 000a 0023     		movs	r3, #0
 207 000c 0222     		movs	r2, #2
 208 000e 2900     		movs	r1, r5
 209 0010 2000     		movs	r0, r4
 210 0012 FFF7FEFF 		bl	I2C_I2CMasterWriteBuf
 211              	.LVL27:
 212 0016 0028     		cmp	r0, #0
 213 0018 0DD1     		bne	.L14
 214              	.L13:
  82:PCA9685.c     ****                                                             bufferSize, I2C_I2C_MODE_COMPLETE_XFER)
  83:PCA9685.c     ****      /* If I2C write started without errors, 
  84:PCA9685.c     ****          * wait until I2C Master completes write transfer */
  85:PCA9685.c     ****         while (0u == (I2C_I2CMasterStatus() & I2C_I2C_MSTAT_WR_CMPLT))
 215              		.loc 1 85 0 discriminator 1
 216 001a FFF7FEFF 		bl	I2C_I2CMasterStatus
 217              	.LVL28:
 218 001e 8307     		lsls	r3, r0, #30
 219 0020 FBD5     		bpl	.L13
  86:PCA9685.c     ****         {
  87:PCA9685.c     ****         }
  88:PCA9685.c     ****         
  89:PCA9685.c     ****         /* Report transfer status */
  90:PCA9685.c     ****         if (0u == (I2C_I2CMasterStatus() & I2C_I2C_MSTAT_ERR_XFER))
 220              		.loc 1 90 0
 221 0022 FFF7FEFF 		bl	I2C_I2CMasterStatus
 222              	.LVL29:
 223 0026 8305     		lsls	r3, r0, #22
 224 0028 07D4     		bmi	.L15
  91:PCA9685.c     ****         {
  92:PCA9685.c     ****             /* Check if all bytes were written */
  93:PCA9685.c     ****             if (I2C_I2CMasterGetWriteBufSize() == bufferSize)
 225              		.loc 1 93 0
 226 002a FFF7FEFF 		bl	I2C_I2CMasterGetWriteBufSize
 227              	.LVL30:
 228 002e 0228     		cmp	r0, #2
 229 0030 05D0     		beq	.L16
  78:PCA9685.c     ****     
 230              		.loc 1 78 0
 231 0032 FF20     		movs	r0, #255
 232 0034 04E0     		b	.L12
 233              	.L14:
 234 0036 FF20     		movs	r0, #255
 235 0038 02E0     		b	.L12
 236              	.L15:
 237 003a FF20     		movs	r0, #255
 238 003c 00E0     		b	.L12
 239              	.L16:
  94:PCA9685.c     ****             {
  95:PCA9685.c     ****                 status = TRANSFER_CMPLT;
 240              		.loc 1 95 0
 241 003e 0020     		movs	r0, #0
 242              	.L12:
 243              	.LVL31:
  96:PCA9685.c     ****             }
  97:PCA9685.c     ****         }
  98:PCA9685.c     ****     }
ARM GAS  C:\Users\kratz\AppData\Local\Temp\ccdmGb0v.s 			page 7


  99:PCA9685.c     ****     
 100:PCA9685.c     ****     return status;}
 244              		.loc 1 100 0
 245              		@ sp needed
 246              	.LVL32:
 247              	.LVL33:
 248 0040 70BD     		pop	{r4, r5, r6, pc}
 249              		.cfi_endproc
 250              	.LFE40:
 251              		.size	writeBuffer, .-writeBuffer
 252 0042 C046     		.section	.text.pca_init,"ax",%progbits
 253              		.align	2
 254              		.global	pca_init
 255              		.code	16
 256              		.thumb_func
 257              		.type	pca_init, %function
 258              	pca_init:
 259              	.LFB34:
  16:PCA9685.c     ****     I2C_Start();
 260              		.loc 1 16 0
 261              		.cfi_startproc
 262              		@ args = 0, pretend = 0, frame = 8
 263              		@ frame_needed = 0, uses_anonymous_args = 0
 264 0000 00B5     		push	{lr}
 265              		.cfi_def_cfa_offset 4
 266              		.cfi_offset 14, -4
 267 0002 83B0     		sub	sp, sp, #12
 268              		.cfi_def_cfa_offset 16
  17:PCA9685.c     ****     I2C_Enable();
 269              		.loc 1 17 0
 270 0004 FFF7FEFF 		bl	I2C_Start
 271              	.LVL34:
  18:PCA9685.c     ****     uint8 mode_buf[2] = {0,0b10000000};
 272              		.loc 1 18 0
 273 0008 FFF7FEFF 		bl	I2C_Enable
 274              	.LVL35:
  19:PCA9685.c     ****     writeBuffer(mode_buf, PCA9685ADDY);
 275              		.loc 1 19 0
 276 000c 01A8     		add	r0, sp, #4
 277 000e 0023     		movs	r3, #0
 278 0010 0370     		strb	r3, [r0]
 279 0012 8033     		adds	r3, r3, #128
 280 0014 4370     		strb	r3, [r0, #1]
  20:PCA9685.c     ****     
 281              		.loc 1 20 0
 282 0016 4021     		movs	r1, #64
 283 0018 FFF7FEFF 		bl	writeBuffer
 284              	.LVL36:
  22:PCA9685.c     ****     writeBuffer(freq_buf, PCA9685ADDY);
 285              		.loc 1 22 0
 286 001c 0222     		movs	r2, #2
 287 001e 0549     		ldr	r1, .L18
 288 0020 6846     		mov	r0, sp
 289 0022 FFF7FEFF 		bl	memcpy
 290              	.LVL37:
  23:PCA9685.c     **** }
 291              		.loc 1 23 0
ARM GAS  C:\Users\kratz\AppData\Local\Temp\ccdmGb0v.s 			page 8


 292 0026 4021     		movs	r1, #64
 293 0028 6846     		mov	r0, sp
 294 002a FFF7FEFF 		bl	writeBuffer
 295              	.LVL38:
  24:PCA9685.c     **** 
 296              		.loc 1 24 0
 297 002e 03B0     		add	sp, sp, #12
 298              		@ sp needed
 299 0030 00BD     		pop	{pc}
 300              	.L19:
 301 0032 C046     		.align	2
 302              	.L18:
 303 0034 00000000 		.word	.LANCHOR0
 304              		.cfi_endproc
 305              	.LFE34:
 306              		.size	pca_init, .-pca_init
 307              		.section	.text.writeByte,"ax",%progbits
 308              		.align	2
 309              		.global	writeByte
 310              		.code	16
 311              		.thumb_func
 312              		.type	writeByte, %function
 313              	writeByte:
 314              	.LFB35:
  27:PCA9685.c     ****      uint8 buf[2] = {chip_register, value};
 315              		.loc 1 27 0
 316              		.cfi_startproc
 317              		@ args = 0, pretend = 0, frame = 8
 318              		@ frame_needed = 0, uses_anonymous_args = 0
 319              	.LVL39:
 320 0000 00B5     		push	{lr}
 321              		.cfi_def_cfa_offset 4
 322              		.cfi_offset 14, -4
 323 0002 83B0     		sub	sp, sp, #12
 324              		.cfi_def_cfa_offset 16
  28:PCA9685.c     ****      writeBuffer(buf, PCA9685ADDY);
 325              		.loc 1 28 0
 326 0004 01AB     		add	r3, sp, #4
 327 0006 1870     		strb	r0, [r3]
 328 0008 5970     		strb	r1, [r3, #1]
  29:PCA9685.c     **** }
 329              		.loc 1 29 0
 330 000a 4021     		movs	r1, #64
 331              	.LVL40:
 332 000c 1800     		movs	r0, r3
 333              	.LVL41:
 334 000e FFF7FEFF 		bl	writeBuffer
 335              	.LVL42:
  30:PCA9685.c     **** 
 336              		.loc 1 30 0
 337 0012 03B0     		add	sp, sp, #12
 338              		@ sp needed
 339 0014 00BD     		pop	{pc}
 340              		.cfi_endproc
 341              	.LFE35:
 342              		.size	writeByte, .-writeByte
 343 0016 C046     		.section	.text.setPWMFromBytes,"ax",%progbits
ARM GAS  C:\Users\kratz\AppData\Local\Temp\ccdmGb0v.s 			page 9


 344              		.align	2
 345              		.global	setPWMFromBytes
 346              		.code	16
 347              		.thumb_func
 348              		.type	setPWMFromBytes, %function
 349              	setPWMFromBytes:
 350              	.LFB41:
 101:PCA9685.c     **** 
 102:PCA9685.c     **** void setPWMFromBytes(int pinN, uint8 onTimeL, uint8 onTimeH, uint8 offTimeL, uint8 offTimeH){
 351              		.loc 1 102 0
 352              		.cfi_startproc
 353              		@ args = 4, pretend = 0, frame = 0
 354              		@ frame_needed = 0, uses_anonymous_args = 0
 355              	.LVL43:
 356 0000 F8B5     		push	{r3, r4, r5, r6, r7, lr}
 357              		.cfi_def_cfa_offset 24
 358              		.cfi_offset 3, -24
 359              		.cfi_offset 4, -20
 360              		.cfi_offset 5, -16
 361              		.cfi_offset 6, -12
 362              		.cfi_offset 7, -8
 363              		.cfi_offset 14, -4
 364 0002 1700     		movs	r7, r2
 365 0004 1D00     		movs	r5, r3
 366 0006 06AB     		add	r3, sp, #24
 367              	.LVL44:
 368 0008 1E78     		ldrb	r6, [r3]
 369              	.LVL45:
 103:PCA9685.c     ****     uint8 registerNum = 0;
 104:PCA9685.c     ****     registerNum = 0x06 + pinN * 4;
 370              		.loc 1 104 0
 371 000a 8000     		lsls	r0, r0, #2
 372              	.LVL46:
 373 000c C4B2     		uxtb	r4, r0
 374 000e A01D     		adds	r0, r4, #6
 375 0010 C0B2     		uxtb	r0, r0
 376              	.LVL47:
 105:PCA9685.c     ****     writeByte(registerNum, onTimeL);
 377              		.loc 1 105 0
 378 0012 FFF7FEFF 		bl	writeByte
 379              	.LVL48:
 106:PCA9685.c     ****     writeByte(registerNum+1, onTimeH);
 380              		.loc 1 106 0
 381 0016 E01D     		adds	r0, r4, #7
 382 0018 C0B2     		uxtb	r0, r0
 383 001a 3900     		movs	r1, r7
 384 001c FFF7FEFF 		bl	writeByte
 385              	.LVL49:
 107:PCA9685.c     ****     writeByte(registerNum+2, offTimeL);
 386              		.loc 1 107 0
 387 0020 2000     		movs	r0, r4
 388 0022 0830     		adds	r0, r0, #8
 389 0024 C0B2     		uxtb	r0, r0
 390 0026 2900     		movs	r1, r5
 391 0028 FFF7FEFF 		bl	writeByte
 392              	.LVL50:
 108:PCA9685.c     ****     writeByte(registerNum+3, offTimeH);
ARM GAS  C:\Users\kratz\AppData\Local\Temp\ccdmGb0v.s 			page 10


 393              		.loc 1 108 0
 394 002c 0934     		adds	r4, r4, #9
 395              	.LVL51:
 396 002e E0B2     		uxtb	r0, r4
 397 0030 3100     		movs	r1, r6
 398 0032 FFF7FEFF 		bl	writeByte
 399              	.LVL52:
 109:PCA9685.c     **** }
 400              		.loc 1 109 0
 401              		@ sp needed
 402              	.LVL53:
 403 0036 F8BD     		pop	{r3, r4, r5, r6, r7, pc}
 404              		.cfi_endproc
 405              	.LFE41:
 406              		.size	setPWMFromBytes, .-setPWMFromBytes
 407              		.section	.text.setPWMFromDutyCycle,"ax",%progbits
 408              		.align	2
 409              		.global	setPWMFromDutyCycle
 410              		.code	16
 411              		.thumb_func
 412              		.type	setPWMFromDutyCycle, %function
 413              	setPWMFromDutyCycle:
 414              	.LFB42:
 110:PCA9685.c     **** 
 111:PCA9685.c     **** void setPWMFromDutyCycle(int pinN, int dutyCycle){
 415              		.loc 1 111 0
 416              		.cfi_startproc
 417              		@ args = 0, pretend = 0, frame = 0
 418              		@ frame_needed = 0, uses_anonymous_args = 0
 419              	.LVL54:
 420 0000 70B5     		push	{r4, r5, r6, lr}
 421              		.cfi_def_cfa_offset 16
 422              		.cfi_offset 4, -16
 423              		.cfi_offset 5, -12
 424              		.cfi_offset 6, -8
 425              		.cfi_offset 14, -4
 426 0002 0D00     		movs	r5, r1
 427              	.LVL55:
 112:PCA9685.c     ****     uint8 registerNum = 0;
 113:PCA9685.c     ****     registerNum = 0x06 + pinN * 4;
 428              		.loc 1 113 0
 429 0004 8000     		lsls	r0, r0, #2
 430              	.LVL56:
 431 0006 C4B2     		uxtb	r4, r0
 432 0008 A61D     		adds	r6, r4, #6
 433 000a F6B2     		uxtb	r6, r6
 434              	.LVL57:
 114:PCA9685.c     ****        
 115:PCA9685.c     ****     writeByte(registerNum, TurnOnTimeL());
 435              		.loc 1 115 0
 436 000c FFF7FEFF 		bl	TurnOnTimeL
 437              	.LVL58:
 438 0010 0100     		movs	r1, r0
 439 0012 3000     		movs	r0, r6
 440 0014 FFF7FEFF 		bl	writeByte
 441              	.LVL59:
 116:PCA9685.c     ****     writeByte(registerNum+1, TurnOnTimeH());
ARM GAS  C:\Users\kratz\AppData\Local\Temp\ccdmGb0v.s 			page 11


 442              		.loc 1 116 0
 443 0018 FFF7FEFF 		bl	TurnOnTimeH
 444              	.LVL60:
 445 001c 0100     		movs	r1, r0
 446 001e E31D     		adds	r3, r4, #7
 447 0020 D8B2     		uxtb	r0, r3
 448 0022 FFF7FEFF 		bl	writeByte
 449              	.LVL61:
 117:PCA9685.c     ****     writeByte(registerNum+2, TurnOffTimeL(dutyCycle));
 450              		.loc 1 117 0
 451 0026 2800     		movs	r0, r5
 452 0028 FFF7FEFF 		bl	TurnOffTimeL
 453              	.LVL62:
 454 002c 0100     		movs	r1, r0
 455 002e 2300     		movs	r3, r4
 456 0030 0833     		adds	r3, r3, #8
 457 0032 D8B2     		uxtb	r0, r3
 458 0034 FFF7FEFF 		bl	writeByte
 459              	.LVL63:
 118:PCA9685.c     ****     writeByte(registerNum+3, TurnOffTimeH(dutyCycle));
 460              		.loc 1 118 0
 461 0038 2800     		movs	r0, r5
 462 003a FFF7FEFF 		bl	TurnOffTimeH
 463              	.LVL64:
 464 003e 0100     		movs	r1, r0
 465 0040 0934     		adds	r4, r4, #9
 466 0042 E0B2     		uxtb	r0, r4
 467 0044 FFF7FEFF 		bl	writeByte
 468              	.LVL65:
 119:PCA9685.c     **** }
 469              		.loc 1 119 0
 470              		@ sp needed
 471              	.LVL66:
 472              	.LVL67:
 473 0048 70BD     		pop	{r4, r5, r6, pc}
 474              		.cfi_endproc
 475              	.LFE42:
 476              		.size	setPWMFromDutyCycle, .-setPWMFromDutyCycle
 477 004a C046     		.section	.rodata
 478              		.align	2
 479              		.set	.LANCHOR0,. + 0
 480              	.LC0:
 481 0000 FE       		.byte	-2
 482 0001 79       		.byte	121
 483              		.text
 484              	.Letext0:
 485              		.file 2 "c:\\program files (x86)\\cypress\\psoc creator\\4.4\\psoc creator\\import\\gnu\\arm\\5.4.
 486              		.file 3 "c:\\program files (x86)\\cypress\\psoc creator\\4.4\\psoc creator\\import\\gnu\\arm\\5.4.
 487              		.file 4 "Generated_Source\\PSoC4/cytypes.h"
 488              		.file 5 "Generated_Source\\PSoC4/I2C_I2C.h"
 489              		.file 6 "Generated_Source\\PSoC4/I2C.h"